(lp0
(lp1
I1
aF1.8186830201748527
aa(lp2
I3
aF-0.2300971181828462
aa(lp3
I4
aF0.07158577010132992
aa(lp4
I5
aF-0.1891909638392291
aa(lp5
I2
aF0.010226538585904275
aa(lp6
I0
aF-0.14317154020265985
aa(lp7
I6
aF-0.1380582709097077
aa(lp8
I7
aF-0.030679615757712823
aa(lp9
I1
aF1.8186830201748527
aa(lp10
I2
aF0.010226538585904275
aa(lp11
I4
aF0.07158577010132992
aa(lp12
I5
aF-0.1891909638392291
aa(lp13
I3
aF-0.2300971181828462
aa(lp14
I0
aF-0.14317154020265985
aa(lp15
I6
aF-0.1380582709097077
aa(lp16
I7
aF-0.030679615757712823
aa(lp17
I1
aF1.8186830201748527
aa(lp18
I3
aF-0.2300971181828462
aa(lp19
I2
aF0.010226538585904275
aa(lp20
I4
aF0.07158577010132992
aa(lp21
I5
aF-0.1891909638392291
aa(lp22
I0
aF-0.14317154020265985
aa(lp23
I6
aF-0.1380582709097077
aa(lp24
I7
aF-0.02045307717180855
aa(lp25
I1
aF1.8186830201748527
aa(lp26
I2
aF0.0051132692929521375
aa(lp27
I3
aF-0.2300971181828462
aa(lp28
I4
aF0.10226538585904275
aa(lp29
I5
aF-0.19941750242513337
aa(lp30
I0
aF-0.1380582709097077
aa(lp31
I6
aF-0.1380582709097077
aa(lp32
I7
aF-0.13294500161675557
aa(lp33
I1
aF1.8186830201748527
aa(lp34
I2
aF0.0051132692929521375
aa(lp35
I4
aF0.10737865515199489
aa(lp36
I5
aF-0.19941750242513337
aa(lp37
I3
aF-0.22498384888989406
aa(lp38
I0
aF-0.1380582709097077
aa(lp39
I6
aF-0.1380582709097077
aa(lp40
I7
aF-0.444854428486836
aa(lp41
I1
aF1.8186830201748527
aa(lp42
I2
aF0.0051132692929521375
aa(lp43
I3
aF-0.22498384888989406
aa(lp44
I5
aF-0.19941750242513337
aa(lp45
I4
aF0.11249192444494703
aa(lp46
I0
aF-0.1380582709097077
aa(lp47
I6
aF-0.12783173232380343
aa(lp48
I7
aF-0.705631162427395
aa(lp49
I1
aF1.8186830201748527
aa(lp50
I3
aF-0.22498384888989406
aa(lp51
I4
aF0.14828480949561199
aa(lp52
I2
aF0.015339807878856412
aa(lp53
I5
aF-0.17385115596037268
aa(lp54
I0
aF-0.13294500161675557
aa(lp55
I6
aF-0.10737865515199489
aa(lp56
I7
aF-0.9306150113172891
aa(lp57
I1
aF1.8186830201748527
aa(lp58
I3
aF-0.22498384888989406
aa(lp59
I2
aF0.02045307717180855
aa(lp60
I5
aF-0.17385115596037268
aa(lp61
I4
aF0.15339807878856412
aa(lp62
I0
aF-0.13294500161675557
aa(lp63
I6
aF-0.1227184630308513
aa(lp64
I7
aF-0.9357282806102412
aa(lp65
I2
aF0.03579288505066496
aa(lp66
I4
aF0.1636246173744684
aa(lp67
I1
aF1.8186830201748527
aa(lp68
I5
aF-0.14828480949561199
aa(lp69
I3
aF-0.36304211979960177
aa(lp70
I0
aF-0.1380582709097077
aa(lp71
I6
aF-0.11249192444494703
aa(lp72
I7
aF-0.9357282806102412
aa(lp73
I1
aF1.8186830201748527
aa(lp74
I2
aF0.07158577010132992
aa(lp75
I4
aF-0.1380582709097077
aa(lp76
I3
aF-1.1658253987930873
aa(lp77
I5
aF0.9050486648525283
aa(lp78
I0
aF-0.14828480949561199
aa(lp79
I6
aF-0.11249192444494703
aa(lp80
I7
aF-0.9357282806102412
aa(lp81
I1
aF1.8154754663473838
aa(lp82
I2
aF0.09203884727313848
aa(lp83
I3
aF-1.4010357862688856
aa(lp84
I5
aF1.2936571311168907
aa(lp85
I4
aF-0.2761165418194154
aa(lp86
I0
aF-0.15339807878856412
aa(lp87
I6
aF-0.11249192444494703
aa(lp88
I7
aF-0.9357282806102412
aa(lp89
I1
aF1.8154754663473838
aa(lp90
I2
aF0.07158577010132992
aa(lp91
I5
aF1.3447898240464122
aa(lp92
I4
aF-0.2761165418194154
aa(lp93
I3
aF-1.4419419406125027
aa(lp94
I0
aF-0.14828480949561199
aa(lp95
I6
aF-0.11249192444494703
aa(lp96
I7
aF-0.9357282806102412
aa(lp97
I1
aF1.8154754663473838
aa(lp98
I2
aF0.07158577010132992
aa(lp99
I3
aF-1.447055209905455
aa(lp100
I5
aF1.375469439804125
aa(lp101
I4
aF-0.26589000323351114
aa(lp102
I0
aF-0.14317154020265985
aa(lp103
I6
aF-0.10737865515199489
aa(lp104
I7
aF-0.9357282806102412
aa(lp105
I1
aF1.5984309906886565
aa(lp106
I2
aF0.08692557798018634
aa(lp107
I3
aF-1.3499030933393643
aa(lp108
I4
aF-0.2454369260617026
aa(lp109
I5
aF1.5493205957644978
aa(lp110
I0
aF-0.15851134808151626
aa(lp111
I6
aF-0.09203884727313848
aa(lp112
I7
aF-0.9357282806102412
aa(lp113
I1
aF0.8542785027158772
aa(lp114
I2
aF0.21987057959694192
aa(lp115
I3
aF-0.6851780852555864
aa(lp116
I5
aF1.8100973297050567
aa(lp117
I4
aF-0.3374757733348411
aa(lp118
I0
aF-0.22498384888989406
aa(lp119
I6
aF-0.09203884727313848
aa(lp120
I7
aF-0.9357282806102412
aa(lp121
I1
aF0.5463533352788652
aa(lp122
I2
aF0.29145634969827183
aa(lp123
I4
aF-0.4039482741432189
aa(lp124
I5
aF1.9634954084936207
aa(lp125
I3
aF-0.06135923151542565
aa(lp126
I0
aF-0.3528155812136975
aa(lp127
I6
aF-0.06135923151542565
aa(lp128
I7
aF-0.9357282806102412
aa(lp129
I1
aF0.5399382276239274
aa(lp130
I2
aF-0.21987057959694192
aa(lp131
I3
aF0.09715211656609062
aa(lp132
I5
aF1.9634954084936207
aa(lp133
I4
aF0.23521038747579834
aa(lp134
I0
aF-0.41417481272912315
aa(lp135
I6
aF-0.030679615757712823
aa(lp136
I1
aF0.5399382276239274
aa(lp137
I2
aF-0.4857605828304531
aa(lp138
I5
aF1.9634954084936207
aa(lp139
I4
aF0.4499676977797881
aa(lp140
I3
aF0.0409061543436171
aa(lp141
I0
aF-0.409061543436171
aa(lp142
I6
aF-0.03579288505066496
aa(lp143
I7
aF-0.9357282806102412
aa(lp144
I1
aF0.5399382276239274
aa(lp145
I2
aF-0.4908738521234052
aa(lp146
I3
aF0.0409061543436171
aa(lp147
I5
aF1.9634954084936207
aa(lp148
I4
aF0.4499676977797881
aa(lp149
I0
aF-0.409061543436171
aa(lp150
I6
aF-0.03579288505066496
aa(lp151
I7
aF-0.9357282806102412
aa(lp152
I1
aF0.5399382276239274
aa(lp153
I2
aF-0.4908738521234052
aa(lp154
I3
aF0.0409061543436171
aa(lp155
I4
aF0.4499676977797881
aa(lp156
I5
aF1.9634954084936207
aa(lp157
I0
aF-0.409061543436171
aa(lp158
I6
aF-0.03579288505066496
aa(lp159
I7
aF-0.9357282806102412
aa(lp160
I1
aF0.5399382276239274
aa(lp161
I2
aF-0.4959871214163573
aa(lp162
I3
aF0.0409061543436171
aa(lp163
I4
aF0.4499676977797881
aa(lp164
I5
aF1.9634954084936207
aa(lp165
I0
aF-0.409061543436171
aa(lp166
I6
aF-0.03579288505066496
aa(lp167
I7
aF-0.9357282806102412
aa(lp168
I1
aF0.5399382276239274
aa(lp169
I2
aF-0.4959871214163573
aa(lp170
I3
aF0.0409061543436171
aa(lp171
I5
aF1.9634954084936207
aa(lp172
I4
aF0.4499676977797881
aa(lp173
I0
aF-0.409061543436171
aa(lp174
I6
aF-0.03579288505066496
aa(lp175
I7
aF-0.9357282806102412
aa(lp176
I1
aF0.5410074122330837
aa(lp177
I2
aF-0.4908738521234052
aa(lp178
I4
aF0.46530750565864454
aa(lp179
I3
aF0.05113269292952138
aa(lp180
I5
aF1.9634954084936207
aa(lp181
I0
aF-0.4039482741432189
aa(lp182
I6
aF-0.04601942363656924
aa(lp183
I7
aF-0.9357282806102412
aa(lp184
I1
aF0.6661020115043699
aa(lp185
I2
aF-0.4857605828304531
aa(lp186
I4
aF0.5931392379824479
aa(lp187
I3
aF0.12783173232380343
aa(lp188
I5
aF1.9634954084936207
aa(lp189
I0
aF-0.39883500485026674
aa(lp190
I6
aF-0.22498384888989406
aa(lp191
I7
aF-0.9306150113172891
aa(lp192
I1
aF0.9547818559765687
aa(lp193
I4
aF0.5931392379824479
aa(lp194
I5
aF1.9634954084936207
aa(lp195
I3
aF-0.0818123086872342
aa(lp196
I2
aF-0.5011003907093095
aa(lp197
I0
aF-0.43974115919388385
aa(lp198
I6
aF-0.48064731353750095
aa(lp199
I7
aF-0.9357282806102412
aa(lp200
I1
aF1.2947825616882696
aa(lp201
I2
aF-0.4346278899009317
aa(lp202
I3
aF-0.4908738521234052
aa(lp203
I5
aF1.9532688699077165
aa(lp204
I4
aF0.5880259686894959
aa(lp205
I0
aF-0.5266667371740702
aa(lp206
I6
aF-0.521553467881118
aa(lp207
I7
aF-0.9459548191961454
aa(lp208
I1
aF1.351449345973553
aa(lp209
I2
aF-0.43974115919388385
aa(lp210
I3
aF-0.4704207749515967
aa(lp211
I4
aF0.5931392379824479
aa(lp212
I5
aF1.927702523442956
aa(lp213
I0
aF-0.5266667371740702
aa(lp214
I6
aF-0.5982525072754001
aa(lp215
I7
aF-0.9459548191961454
aa(lp216
I1
aF1.3899399919031796
aa(lp217
I2
aF-0.4959871214163573
aa(lp218
I3
aF-0.4601942363656924
aa(lp219
I4
aF0.6493852002049215
aa(lp220
I5
aF1.927702523442956
aa(lp221
I0
aF-0.5317800064670223
aa(lp222
I6
aF-0.5982525072754001
aa(lp223
I7
aF-0.9459548191961454
aa(lp224
I1
aF1.420946345568712
aa(lp225
I2
aF-0.5062136600022616
aa(lp226
I3
aF-0.4704207749515967
aa(lp227
I4
aF0.6493852002049215
aa(lp228
I5
aF1.9072494462711473
aa(lp229
I0
aF-0.5317800064670223
aa(lp230
I6
aF-0.5931392379824479
aa(lp231
I7
aF-0.9459548191961454
aa(lp232
I1
aF1.4369841147060565
aa(lp233
I2
aF-0.5113269292952137
aa(lp234
I3
aF-0.4908738521234052
aa(lp235
I4
aF0.6493852002049215
aa(lp236
I5
aF1.9072494462711473
aa(lp237
I0
aF-0.5317800064670223
aa(lp238
I6
aF-0.5931392379824479
aa(lp239
I7
aF-0.9459548191961454
aa(lp240
I1
aF1.4423300377518378
aa(lp241
I3
aF-0.4959871214163573
aa(lp242
I5
aF1.9072494462711473
aa(lp243
I2
aF-0.5266667371740702
aa(lp244
I4
aF0.6493852002049215
aa(lp245
I0
aF-0.5317800064670223
aa(lp246
I7
aF-0.9306150113172891
aa(lp247
I6
aF-0.5931392379824479
aa(lp248
I1
aF1.4423300377518378
aa(lp249
I2
aF-0.5317800064670223
aa(lp250
I4
aF0.6493852002049215
aa(lp251
I3
aF-0.4908738521234052
aa(lp252
I5
aF1.9072494462711473
aa(lp253
I0
aF-0.5317800064670223
aa(lp254
I6
aF-0.5931392379824479
aa(lp255
I7
aF-0.9255017420243369
aa(lp256
I1
aF1.4444684069701506
aa(lp257
I2
aF-0.557346352931783
aa(lp258
I4
aF0.6493852002049215
aa(lp259
I3
aF-0.4908738521234052
aa(lp260
I5
aF1.9072494462711473
aa(lp261
I0
aF-0.5317800064670223
aa(lp262
I6
aF-0.5931392379824479
aa(lp263
I7
aF-0.9203884727313848
aa(lp264
I1
aF1.4444684069701506
aa(lp265
I2
aF-0.5624596222247351
aa(lp266
I3
aF-0.4908738521234052
aa(lp267
I5
aF1.9072494462711473
aa(lp268
I4
aF0.6544984694978736
aa(lp269
I0
aF-0.5317800064670223
aa(lp270
I6
aF-0.5880259686894959
aa(lp271
I7
aF-0.9255017420243369
aa(lp272
I1
aF1.4444684069701506
aa(lp273
I2
aF-0.5675728915176873
aa(lp274
I4
aF0.6544984694978736
aa(lp275
I3
aF-0.4959871214163573
aa(lp276
I5
aF1.9072494462711473
aa(lp277
I0
aF-0.5317800064670223
aa(lp278
I6
aF-0.5880259686894959
aa(lp279
I7
aF-0.9152752034384326
aa(lp280
I1
aF1.4444684069701506
aa(lp281
I2
aF-0.6084790458613044
aa(lp282
I4
aF0.7107444317203471
aa(lp283
I5
aF1.8867963690993388
aa(lp284
I3
aF-0.4704207749515967
aa(lp285
I0
aF-0.5317800064670223
aa(lp286
I6
aF-0.5880259686894959
aa(lp287
I7
aF-0.8743690490948155
aa(lp288
I1
aF1.4444684069701506
aa(lp289
I2
aF-0.6187055844472087
aa(lp290
I3
aF-0.5062136600022616
aa(lp291
I4
aF0.6954046238414907
aa(lp292
I5
aF1.9123627155640994
aa(lp293
I0
aF-0.5471198143458788
aa(lp294
I6
aF-0.5880259686894959
aa(lp295
I7
aF-0.8436894333371027
aa(lp296
I1
aF1.413462053304618
aa(lp297
I2
aF-0.66983827737673
aa(lp298
I4
aF0.7669903939428206
aa(lp299
I3
aF-0.4704207749515967
aa(lp300
I5
aF1.8919096383922909
aa(lp301
I0
aF-0.5522330836388308
aa(lp302
I6
aF-0.5880259686894959
aa(lp303
I7
aF-0.5726861608106394
aa(lp304
I1
aF1.3706946689383663
aa(lp305
I2
aF-0.66983827737673
aa(lp306
I3
aF-0.42951462060797957
aa(lp307
I5
aF1.9021361769781953
aa(lp308
I4
aF0.7772169325287249
aa(lp309
I0
aF-0.5522330836388308
aa(lp310
I6
aF-0.5880259686894959
aa(lp311
I7
aF-0.41417481272912315
aa(lp312
I1
aF1.3503801613643966
aa(lp313
I2
aF-0.6902913545485385
aa(lp314
I4
aF0.7874434711146292
aa(lp315
I3
aF-0.409061543436171
aa(lp316
I5
aF1.9072494462711473
aa(lp317
I0
aF-0.5522330836388308
aa(lp318
I6
aF-0.5880259686894959
aa(lp319
I7
aF-0.38860846626436246
aa(lp320
I1
aF1.1429583471880762
aa(lp321
I2
aF-0.6954046238414907
aa(lp322
I3
aF-0.3834951969714103
aa(lp323
I4
aF0.8488027026300549
aa(lp324
I5
aF1.9634954084936207
aa(lp325
I0
aF-0.5726861608106394
aa(lp326
I6
aF-0.5880259686894959
aa(lp327
I7
aF-0.38860846626436246
aa(lp328
I1
aF0.6361648424479938
aa(lp329
I2
aF-0.6954046238414907
aa(lp330
I3
aF0.14317154020265985
aa(lp331
I5
aF1.9634954084936207
aa(lp332
I4
aF0.9050486648525283
aa(lp333
I0
aF-0.48064731353750095
aa(lp334
I6
aF-0.5880259686894959
aa(lp335
I7
aF-0.38860846626436246
aa(lp336
I1
aF0.12937133770791132
aa(lp337
I2
aF-0.46530750565864454
aa(lp338
I3
aF0.8130098175793898
aa(lp339
I5
aF1.9634954084936207
aa(lp340
I4
aF0.444854428486836
aa(lp341
I0
aF-0.3834951969714103
aa(lp342
I6
aF-0.5982525072754001
aa(lp343
I7
aF-0.38860846626436246
aa(lp344
I1
aF-0.12616378388044244
aa(lp345
I2
aF-0.15851134808151626
aa(lp346
I3
aF1.380582709097077
aa(lp347
I4
aF-0.06135923151542565
aa(lp348
I5
aF1.784530983240296
aa(lp349
I0
aF-0.38860846626436246
aa(lp350
I6
aF-0.5931392379824479
aa(lp351
I7
aF-0.38860846626436246
aa(lp352
I1
aF-0.11333356857056695
aa(lp353
I2
aF-0.18407769454627695
aa(lp354
I4
aF-0.02045307717180855
aa(lp355
I5
aF1.636246173744684
aa(lp356
I3
aF1.5544338650574498
aa(lp357
I0
aF-0.409061543436171
aa(lp358
I6
aF-0.5880259686894959
aa(lp359
I7
aF-0.3937217355573146
aa(lp360
I1
aF-0.11333356857056695
aa(lp361
I2
aF-0.22498384888989406
aa(lp362
I4
aF-0.010226538585904275
aa(lp363
I5
aF1.6055665579869711
aa(lp364
I3
aF1.6157930965728755
aa(lp365
I0
aF-0.41417481272912315
aa(lp366
I6
aF-0.5880259686894959
aa(lp367
I7
aF-0.3937217355573146
aa(lp368
I1
aF-0.11333356857056695
aa(lp369
I2
aF-0.22498384888989406
aa(lp370
I3
aF1.6209063658658276
aa(lp371
I5
aF1.5851134808151626
aa(lp372
I4
aF0.0
aa(lp373
I0
aF-0.409061543436171
aa(lp374
I6
aF-0.5880259686894959
aa(lp375
I7
aF-0.4346278899009317
aa(lp376
I1
aF-0.11333356857056695
aa(lp377
I2
aF-0.24032365676875048
aa(lp378
I4
aF0.010226538585904275
aa(lp379
I3
aF1.631132904451732
aa(lp380
I5
aF1.6209063658658276
aa(lp381
I0
aF-0.41417481272912315
aa(lp382
I6
aF-0.5880259686894959
aa(lp383
I7
aF-0.557346352931783
aa(lp384
I1
aF-0.24377409088763458
aa(lp385
I2
aF-0.26589000323351114
aa(lp386
I3
aF1.4777348256631677
aa(lp387
I4
aF0.015339807878856412
aa(lp388
I5
aF1.6618125202094447
aa(lp389
I0
aF-0.41417481272912315
aa(lp390
I6
aF-0.5726861608106394
aa(lp391
I7
aF-0.6033657765683522
aa(lp392
I1
aF-0.2961641367362929
aa(lp393
I2
aF-0.28122981111236756
aa(lp394
I3
aF1.114692705863566
aa(lp395
I4
aF0.1636246173744684
aa(lp396
I5
aF1.6822655973812533
aa(lp397
I0
aF-0.41417481272912315
aa(lp398
I6
aF-0.5675728915176873
aa(lp399
I7
aF-0.6033657765683522
aa(lp400
I1
aF-0.2961641367362929
aa(lp401
I2
aF-0.26589000323351114
aa(lp402
I3
aF1.0175405892974754
aa(lp403
I4
aF0.1380582709097077
aa(lp404
I5
aF1.779417713947344
aa(lp405
I0
aF-0.41417481272912315
aa(lp406
I6
aF-0.521553467881118
aa(lp407
I7
aF-0.6187055844472087
aa(lp408
I1
aF-0.18283056816572593
aa(lp409
I2
aF-0.2300971181828462
aa(lp410
I3
aF1.3601296319252685
aa(lp411
I5
aF1.7640779060684875
aa(lp412
I4
aF0.015339807878856412
aa(lp413
I0
aF-0.41417481272912315
aa(lp414
I6
aF-0.521553467881118
aa(lp415
I7
aF-0.6187055844472087
aa(lp416
I1
aF-0.1742770912924756
aa(lp417
I2
aF-0.2300971181828462
aa(lp418
I3
aF1.5135277107138327
aa(lp419
I4
aF0.0
aa(lp420
I5
aF1.6669257895023968
aa(lp421
I0
aF-0.41417481272912315
aa(lp422
I6
aF-0.521553467881118
aa(lp423
I7
aF-0.6187055844472087
aa(lp424
I1
aF-0.16679279902838154
aa(lp425
I2
aF-0.2300971181828462
aa(lp426
I3
aF1.5748869422292584
aa(lp427
I4
aF0.0051132692929521375
aa(lp428
I5
aF1.6106798272799234
aa(lp429
I0
aF-0.41417481272912315
aa(lp430
I6
aF-0.521553467881118
aa(lp431
I7
aF-0.6187055844472087
aa(lp432
I1
aF-0.13792481458116165
aa(lp433
I2
aF-0.2300971181828462
aa(lp434
I4
aF0.0051132692929521375
aa(lp435
I5
aF1.6157930965728755
aa(lp436
I3
aF1.5800002115222105
aa(lp437
I0
aF-0.41417481272912315
aa(lp438
I6
aF-0.521553467881118
aa(lp439
I7
aF-0.6187055844472087
aa(lp440
I1
aF-0.12081786083466099
aa(lp441
I2
aF-0.2300971181828462
aa(lp442
I4
aF-0.010226538585904275
aa(lp443
I3
aF1.5800002115222105
aa(lp444
I5
aF1.6566992509164926
aa(lp445
I0
aF-0.41417481272912315
aa(lp446
I7
aF-0.6187055844472087
aa(lp447
I6
aF-0.521553467881118
aa(lp448
I1
aF-0.11547193778887953
aa(lp449
I2
aF-0.22498384888989406
aa(lp450
I3
aF1.5697736729363063
aa(lp451
I5
aF1.6413594430376361
aa(lp452
I4
aF-0.02556634646476069
aa(lp453
I0
aF-0.41417481272912315
aa(lp454
I6
aF-0.521553467881118
aa(lp455
I7
aF-0.5624596222247351
aa(lp456
I1
aF-0.11547193778887953
aa(lp457
I2
aF-0.22498384888989406
aa(lp458
I3
aF1.564660403643354
aa(lp459
I5
aF1.6413594430376361
aa(lp460
I4
aF-0.02556634646476069
aa(lp461
I0
aF-0.41417481272912315
aa(lp462
I6
aF-0.521553467881118
aa(lp463
I7
aF-0.43974115919388385
aa(lp464
I1
aF-0.11547193778887953
aa(lp465
I2
aF-0.22498384888989406
aa(lp466
I4
aF-0.02556634646476069
aa(lp467
I5
aF1.6618125202094447
aa(lp468
I3
aF1.5544338650574498
aa(lp469
I0
aF-0.41417481272912315
aa(lp470
I6
aF-0.521553467881118
aa(lp471
I7
aF-0.3783819276784582
aa(lp472
I1
aF-0.11547193778887953
aa(lp473
I2
aF-0.22498384888989406
aa(lp474
I3
aF1.5493205957644978
aa(lp475
I4
aF-0.030679615757712823
aa(lp476
I5
aF1.6720390587953489
aa(lp477
I0
aF-0.41417481272912315
aa(lp478
I6
aF-0.5266667371740702
aa(lp479
I7
aF-0.3783819276784582
aa(lp480
I1
aF-0.11440275317972325
aa(lp481
I2
aF-0.21987057959694192
aa(lp482
I3
aF1.5033011721279284
aa(lp483
I4
aF-0.030679615757712823
aa(lp484
I5
aF1.6822655973812533
aa(lp485
I0
aF-0.409061543436171
aa(lp486
I6
aF-0.5266667371740702
aa(lp487
I7
aF-0.3783819276784582
aa(lp488
I1
aF-0.052390045848658306
aa(lp489
I2
aF-0.1227184630308513
aa(lp490
I4
aF-0.010226538585904275
aa(lp491
I3
aF1.3192234775816514
aa(lp492
I5
aF1.6157930965728755
aa(lp493
I0
aF-0.41417481272912315
aa(lp494
I6
aF-0.5266667371740702
aa(lp495
I7
aF-0.3783819276784582
aa(lp496
I1
aF0.31434027509194984
aa(lp497
I2
aF-0.056245962222473515
aa(lp498
I3
aF0.9255017420243369
aa(lp499
I4
aF0.056245962222473515
aa(lp500
I5
aF1.5902267501081149
aa(lp501
I0
aF-0.4039482741432189
aa(lp502
I7
aF-0.38860846626436246
aa(lp503
I6
aF-0.521553467881118
aa(lp504
I1
aF0.8232721490503448
aa(lp505
I2
aF-0.056245962222473515
aa(lp506
I3
aF0.30679615757712825
aa(lp507
I4
aF0.05113269292952138
aa(lp508
I5
aF1.820323868290961
aa(lp509
I0
aF-0.3937217355573146
aa(lp510
I6
aF-0.521553467881118
aa(lp511
I7
aF-0.38860846626436246
aa(lp512
I1
aF1.0809456398570112
aa(lp513
I2
aF-0.24032365676875048
aa(lp514
I3
aF-0.02045307717180855
aa(lp515
I4
aF0.2505501953546547
aa(lp516
I5
aF1.9072494462711473
aa(lp517
I0
aF-0.39883500485026674
aa(lp518
I6
aF-0.521553467881118
aa(lp519
I7
aF-0.38860846626436246
aa(lp520
I1
aF1.0830840090753238
aa(lp521
I2
aF-0.32213596545598466
aa(lp522
I3
aF-0.02556634646476069
aa(lp523
I4
aF0.28122981111236756
aa(lp524
I5
aF1.9123627155640994
aa(lp525
I0
aF-0.38860846626436246
aa(lp526
I6
aF-0.5266667371740702
aa(lp527
I7
aF-0.38860846626436246
aa(lp528
I1
aF1.0830840090753238
aa(lp529
I2
aF-0.3528155812136975
aa(lp530
I4
aF0.30679615757712825
aa(lp531
I3
aF-0.02556634646476069
aa(lp532
I5
aF1.93792906202886
aa(lp533
I0
aF-0.3834951969714103
aa(lp534
I6
aF-0.5317800064670223
aa(lp535
I7
aF-0.3937217355573146
aa(lp536
I1
aF1.0852223782936363
aa(lp537
I2
aF-0.3937217355573146
aa(lp538
I3
aF-0.02556634646476069
aa(lp539
I4
aF0.3119094268700804
aa(lp540
I5
aF1.927702523442956
aa(lp541
I0
aF-0.37326865838550605
aa(lp542
I6
aF-0.557346352931783
aa(lp543
I7
aF-0.39883500485026674
aa(lp544
I1
aF1.0830840090753238
aa(lp545
I2
aF-0.4192880820220753
aa(lp546
I3
aF-0.030679615757712823
aa(lp547
I4
aF0.3170226961630325
aa(lp548
I5
aF1.9430423313218124
aa(lp549
I0
aF-0.3681553890925539
aa(lp550
I6
aF-0.5880259686894959
aa(lp551
I7
aF-0.4346278899009317
aa(lp552
I1
aF0.8649703488074402
aa(lp553
I2
aF-0.3681553890925539
aa(lp554
I4
aF0.5164401985881659
aa(lp555
I5
aF1.8152105989980087
aa(lp556
I3
aF-0.030679615757712823
aa(lp557
I0
aF-0.39883500485026674
aa(lp558
I6
aF-0.5113269292952137
aa(lp559
I7
aF-0.444854428486836
aa(lp560
I1
aF0.897045887082129
aa(lp561
I2
aF-0.05113269292952138
aa(lp562
I3
aF-0.02045307717180855
aa(lp563
I5
aF0.9715211656609062
aa(lp564
I4
aF0.5522330836388308
aa(lp565
I0
aF-0.1636246173744684
aa(lp566
I6
aF-0.444854428486836
aa(lp567
I7
aF-0.444854428486836
aa(lp568
I1
aF1.4327073762694313
aa(lp569
I2
aF0.0051132692929521375
aa(lp570
I3
aF-0.2045307717180855
aa(lp571
I4
aF0.38860846626436246
aa(lp572
I5
aF0.2710032725264633
aa(lp573
I0
aF-0.056245962222473515
aa(lp574
I6
aF-0.444854428486836
aa(lp575
I7
aF-0.4346278899009317
aa(lp576
I1
aF1.8293748662664155
aa(lp577
I3
aF-0.38860846626436246
aa(lp578
I4
aF0.06647250080837779
aa(lp579
I2
aF0.11249192444494703
aa(lp580
I5
aF0.06647250080837779
aa(lp581
I0
aF-0.015339807878856412
aa(lp582
I7
aF-0.409061543436171
aa(lp583
I6
aF-0.444854428486836
aa(lp584
I1
aF1.8293748662664155
aa(lp585
I2
aF0.11249192444494703
aa(lp586
I4
aF0.17896442525332482
aa(lp587
I5
aF-0.09203884727313848
aa(lp588
I3
aF-0.2761165418194154
aa(lp589
I0
aF-0.015339807878856412
aa(lp590
I7
aF-0.4039482741432189
aa(lp591
I6
aF-0.444854428486836
aa(lp592
I1
aF1.8293748662664155
aa(lp593
I2
aF0.09715211656609062
aa(lp594
I4
aF0.09715211656609062
aa(lp595
I3
aF-0.260776733940559
aa(lp596
I5
aF-0.06647250080837779
aa(lp597
I0
aF-0.015339807878856412
aa(lp598
I6
aF-0.4499676977797881
aa(lp599
I7
aF-0.4039482741432189
aa(lp600
I1
aF1.8293748662664155
aa(lp601
I2
aF0.09715211656609062
aa(lp602
I3
aF-0.260776733940559
aa(lp603
I5
aF-0.06647250080837779
aa(lp604
I4
aF0.09715211656609062
aa(lp605
I0
aF-0.015339807878856412
aa(lp606
I6
aF-0.4499676977797881
aa(lp607
I7
aF-0.4039482741432189
aa(lp608
I1
aF1.8293748662664155
aa(lp609
I2
aF0.09715211656609062
aa(lp610
I3
aF-0.260776733940559
aa(lp611
I4
aF0.09715211656609062
aa(lp612
I5
aF-0.06647250080837779
aa(lp613
I0
aF-0.015339807878856412
aa(lp614
I6
aF-0.4499676977797881
aa(lp615
I7
aF-0.4039482741432189
aa(lp616
I1
aF1.8293748662664155
aa(lp617
I2
aF0.09715211656609062
aa(lp618
I3
aF-0.260776733940559
aa(lp619
I4
aF0.09715211656609062
aa(lp620
I5
aF-0.06647250080837779
aa(lp621
I0
aF-0.015339807878856412
aa(lp622
I6
aF-0.4499676977797881
aa(lp623
I7
aF-0.4039482741432189
aa(lp624
I1
aF1.8293748662664155
aa(lp625
I2
aF0.09715211656609062
aa(lp626
I3
aF-0.260776733940559
aa(lp627
I4
aF0.09715211656609062
aa(lp628
I5
aF-0.06647250080837779
aa(lp629
I0
aF-0.015339807878856412
aa(lp630
I6
aF-0.4499676977797881
aa(lp631
I7
aF-0.4039482741432189
aa.