(lp0
(lp1
I1
aF0.06949699959515898
aa(lp2
I4
aF-0.1227184630308513
aa(lp3
I5
aF1.2476377074803215
aa(lp4
I2
aF0.36304211979960177
aa(lp5
I3
aF0.9050486648525283
aa(lp6
I6
aF0.07669903939428206
aa(lp7
I7
aF-0.8283496254582463
aa(lp8
I0
aF-0.3681553890925539
aa(lp9
I1
aF0.06735863037684639
aa(lp10
I3
aF0.8641425105089112
aa(lp11
I4
aF-0.07158577010132992
aa(lp12
I5
aF1.3856959783900293
aa(lp13
I2
aF0.3374757733348411
aa(lp14
I0
aF-0.37326865838550605
aa(lp15
I6
aF0.07669903939428206
aa(lp16
I7
aF-0.8283496254582463
aa(lp17
I1
aF0.06735863037684639
aa(lp18
I2
aF0.3272492347489368
aa(lp19
I3
aF0.8385761640441506
aa(lp20
I5
aF1.4214888634406941
aa(lp21
I4
aF-0.08692557798018634
aa(lp22
I0
aF-0.3681553890925539
aa(lp23
I6
aF0.07669903939428206
aa(lp24
I7
aF-0.8283496254582463
aa(lp25
I1
aF0.06735863037684639
aa(lp26
I2
aF0.32213596545598466
aa(lp27
I3
aF0.8385761640441506
aa(lp28
I4
aF-0.07158577010132992
aa(lp29
I5
aF1.4214888634406941
aa(lp30
I0
aF-0.2454369260617026
aa(lp31
I6
aF0.0818123086872342
aa(lp32
I7
aF-0.8334628947511984
aa(lp33
I1
aF0.06735863037684639
aa(lp34
I2
aF0.16873788666742054
aa(lp35
I4
aF-0.0409061543436171
aa(lp36
I5
aF1.3908092476829814
aa(lp37
I3
aF0.8488027026300549
aa(lp38
I0
aF0.10226538585904275
aa(lp39
I6
aF0.0818123086872342
aa(lp40
I7
aF-0.8283496254582463
aa(lp41
I1
aF0.06735863037684639
aa(lp42
I2
aF0.0
aa(lp43
I4
aF-0.015339807878856412
aa(lp44
I5
aF1.3447898240464122
aa(lp45
I3
aF0.8999353955595762
aa(lp46
I0
aF0.36304211979960177
aa(lp47
I6
aF0.0818123086872342
aa(lp48
I7
aF-0.8283496254582463
aa(lp49
I1
aF0.07698129185925302
aa(lp50
I2
aF-0.1227184630308513
aa(lp51
I3
aF0.9101619341454805
aa(lp52
I5
aF1.3345632854605078
aa(lp53
I4
aF-0.07669903939428206
aa(lp54
I0
aF0.6800648159626342
aa(lp55
I6
aF0.0818123086872342
aa(lp56
I7
aF-0.8283496254582463
aa(lp57
I1
aF0.09088069177828481
aa(lp58
I2
aF-0.36304211979960177
aa(lp59
I4
aF-0.07158577010132992
aa(lp60
I3
aF0.9357282806102412
aa(lp61
I5
aF1.3192234775816514
aa(lp62
I0
aF0.8794823183877677
aa(lp63
I6
aF0.0818123086872342
aa(lp64
I7
aF-0.8283496254582463
aa(lp65
I1
aF0.14006318379947424
aa(lp66
I2
aF-0.34770231192074535
aa(lp67
I4
aF-0.06135923151542565
aa(lp68
I3
aF0.9766344349538583
aa(lp69
I5
aF1.262977515359178
aa(lp70
I0
aF0.8794823183877677
aa(lp71
I7
aF-0.8283496254582463
aa(lp72
I6
aF0.0818123086872342
aa(lp73
I1
aF0.17534627590163188
aa(lp74
I2
aF-0.36304211979960177
aa(lp75
I3
aF0.9408415499031934
aa(lp76
I5
aF1.523754249299737
aa(lp77
I4
aF-0.14317154020265985
aa(lp78
I0
aF0.8488027026300549
aa(lp79
I6
aF0.07669903939428206
aa(lp80
I7
aF-0.8283496254582463
aa(lp81
I1
aF0.3592460286765141
aa(lp82
I2
aF-0.41417481272912315
aa(lp83
I3
aF0.7414240474780599
aa(lp84
I4
aF0.06647250080837779
aa(lp85
I5
aF1.5800002115222105
aa(lp86
I0
aF0.8027832789934856
aa(lp87
I6
aF-0.0409061543436171
aa(lp88
I7
aF-0.8334628947511984
aa(lp89
I1
aF0.47257959724708104
aa(lp90
I2
aF-0.4039482741432189
aa(lp91
I3
aF0.6596117387908257
aa(lp92
I5
aF1.5288675185926892
aa(lp93
I4
aF0.03579288505066496
aa(lp94
I0
aF0.7772169325287249
aa(lp95
I6
aF-0.3528155812136975
aa(lp96
I7
aF-0.8334628947511984
aa(lp97
I1
aF0.4779255202928625
aa(lp98
I2
aF-0.4039482741432189
aa(lp99
I3
aF0.7107444317203471
aa(lp100
I4
aF0.16873788666742054
aa(lp101
I5
aF1.4675082870772636
aa(lp102
I0
aF0.7209709703062513
aa(lp103
I6
aF-0.5062136600022616
aa(lp104
I7
aF-0.8334628947511984
aa(lp105
I1
aF0.490755735602738
aa(lp106
I3
aF0.7516505860639642
aa(lp107
I5
aF1.406149055561838
aa(lp108
I2
aF-0.4039482741432189
aa(lp109
I4
aF0.2761165418194154
aa(lp110
I0
aF0.66983827737673
aa(lp111
I6
aF-0.6238188537401608
aa(lp112
I7
aF-0.8334628947511984
aa(lp113
I1
aF0.490755735602738
aa(lp114
I2
aF-0.4039482741432189
aa(lp115
I3
aF0.782330201821677
aa(lp116
I4
aF0.32213596545598466
aa(lp117
I5
aF1.3908092476829814
aa(lp118
I0
aF0.6544984694978736
aa(lp119
I6
aF-0.6851780852555864
aa(lp120
I7
aF-0.8334628947511984
aa(lp121
I1
aF0.490755735602738
aa(lp122
I2
aF-0.4039482741432189
aa(lp123
I3
aF0.8488027026300549
aa(lp124
I5
aF1.3345632854605078
aa(lp125
I4
aF0.37326865838550605
aa(lp126
I0
aF0.6544984694978736
aa(lp127
I6
aF-0.705631162427395
aa(lp128
I7
aF-0.8334628947511984
aa(lp129
I1
aF0.490755735602738
aa(lp130
I2
aF-0.3937217355573146
aa(lp131
I4
aF0.3783819276784582
aa(lp132
I3
aF0.9050486648525283
aa(lp133
I5
aF1.2783173232380345
aa(lp134
I0
aF0.6544984694978736
aa(lp135
I6
aF-0.705631162427395
aa(lp136
I7
aF-0.8334628947511984
aa(lp137
I1
aF0.4918249202118943
aa(lp138
I3
aF0.9255017420243369
aa(lp139
I2
aF-0.38860846626436246
aa(lp140
I5
aF1.2527509767732736
aa(lp141
I4
aF0.3783819276784582
aa(lp142
I0
aF0.6544984694978736
aa(lp143
I6
aF-0.705631162427395
aa(lp144
I7
aF-0.8334628947511984
aa(lp145
I1
aF0.4928941048210506
aa(lp146
I2
aF-0.37326865838550605
aa(lp147
I3
aF0.9357282806102412
aa(lp148
I5
aF1.2527509767732736
aa(lp149
I4
aF0.3783819276784582
aa(lp150
I0
aF0.6544984694978736
aa(lp151
I6
aF-0.705631162427395
aa(lp152
I7
aF-0.8283496254582463
aa(lp153
I1
aF0.4928941048210506
aa(lp154
I2
aF-0.37326865838550605
aa(lp155
I3
aF0.9408415499031934
aa(lp156
I4
aF0.38860846626436246
aa(lp157
I5
aF1.2476377074803215
aa(lp158
I0
aF0.6544984694978736
aa(lp159
I6
aF-0.705631162427395
aa(lp160
I7
aF-0.8078965482864378
aa(lp161
I1
aF0.4928941048210506
aa(lp162
I2
aF-0.37326865838550605
aa(lp163
I3
aF0.9970875121256668
aa(lp164
I5
aF1.1965050145508003
aa(lp165
I4
aF0.41417481272912315
aa(lp166
I0
aF0.6544984694978736
aa(lp167
I6
aF-0.705631162427395
aa(lp168
I7
aF-0.7618771246498685
aa(lp169
I2
aF-0.37326865838550605
aa(lp170
I3
aF1.002200781418619
aa(lp171
I1
aF0.4928941048210506
aa(lp172
I5
aF1.1965050145508003
aa(lp173
I4
aF0.41417481272912315
aa(lp174
I0
aF0.6544984694978736
aa(lp175
I6
aF-0.705631162427395
aa(lp176
I7
aF-0.6954046238414907
aa(lp177
I1
aF0.48647899716611287
aa(lp178
I2
aF-0.38860846626436246
aa(lp179
I4
aF0.41417481272912315
aa(lp180
I3
aF1.007314050711571
aa(lp181
I5
aF1.2067315531367044
aa(lp182
I0
aF0.6544984694978736
aa(lp183
I6
aF-0.705631162427395
aa(lp184
I7
aF-0.628932123033113
aa(lp185
I1
aF0.47257959724708104
aa(lp186
I2
aF-0.38860846626436246
aa(lp187
I3
aF1.0124273200045233
aa(lp188
I5
aF1.2118448224296565
aa(lp189
I4
aF0.4192880820220753
aa(lp190
I0
aF0.6544984694978736
aa(lp191
I6
aF-0.705631162427395
aa(lp192
I7
aF-0.557346352931783
aa(lp193
I1
aF0.45547264350058037
aa(lp194
I2
aF-0.38860846626436246
aa(lp195
I3
aF1.0277671278833795
aa(lp196
I5
aF1.2118448224296565
aa(lp197
I4
aF0.4192880820220753
aa(lp198
I0
aF0.6544984694978736
aa(lp199
I6
aF-0.7005178931344428
aa(lp200
I7
aF-0.4959871214163573
aa(lp201
I1
aF0.44371161279986115
aa(lp202
I2
aF-0.38860846626436246
aa(lp203
I3
aF1.037993666469284
aa(lp204
I5
aF1.2118448224296565
aa(lp205
I4
aF0.4192880820220753
aa(lp206
I0
aF0.6544984694978736
aa(lp207
I6
aF-0.7005178931344428
aa(lp208
I7
aF-0.4908738521234052
aa(lp209
I1
aF0.4362273205357671
aa(lp210
I2
aF-0.38860846626436246
aa(lp211
I3
aF1.0533334743481404
aa(lp212
I4
aF0.41417481272912315
aa(lp213
I5
aF1.191391745257848
aa(lp214
I0
aF0.6544984694978736
aa(lp215
I6
aF-0.705631162427395
aa(lp216
I7
aF-0.4908738521234052
aa(lp217
I1
aF0.39345993616951547
aa(lp218
I2
aF-0.3937217355573146
aa(lp219
I4
aF0.41417481272912315
aa(lp220
I5
aF1.1811652066719438
aa(lp221
I3
aF1.0584467436410925
aa(lp222
I0
aF0.6544984694978736
aa(lp223
I6
aF-0.7005178931344428
aa(lp224
I7
aF-0.4908738521234052
aa(lp225
I1
aF0.2876106598630425
aa(lp226
I2
aF-0.4192880820220753
aa(lp227
I3
aF1.0533334743481404
aa(lp228
I5
aF1.1760519373789917
aa(lp229
I4
aF0.41417481272912315
aa(lp230
I0
aF0.6544984694978736
aa(lp231
I6
aF-0.7005178931344428
aa(lp232
I7
aF-0.4908738521234052
aa(lp233
I1
aF0.19566078347560142
aa(lp234
I2
aF-0.45508096707274026
aa(lp235
I3
aF1.0533334743481404
aa(lp236
I4
aF0.41417481272912315
aa(lp237
I5
aF1.1862784759648959
aa(lp238
I0
aF0.6596117387908257
aa(lp239
I6
aF-0.7005178931344428
aa(lp240
I7
aF-0.4908738521234052
aa(lp241
I1
aF0.15503176832766233
aa(lp242
I2
aF-0.5266667371740702
aa(lp243
I3
aF1.048220205055188
aa(lp244
I4
aF0.41417481272912315
aa(lp245
I5
aF1.1862784759648959
aa(lp246
I0
aF0.6544984694978736
aa(lp247
I6
aF-0.6954046238414907
aa(lp248
I7
aF-0.4908738521234052
aa(lp249
I1
aF0.15396258371850605
aa(lp250
I2
aF-0.628932123033113
aa(lp251
I4
aF0.41417481272912315
aa(lp252
I3
aF1.0124273200045233
aa(lp253
I5
aF1.1555988602071832
aa(lp254
I0
aF0.6544984694978736
aa(lp255
I6
aF-0.6902913545485385
aa(lp256
I7
aF-0.4908738521234052
aa(lp257
I1
aF0.14327073762694312
aa(lp258
I2
aF-0.6442719309119693
aa(lp259
I4
aF0.2863430804053197
aa(lp260
I3
aF1.0277671278833795
aa(lp261
I5
aF1.1555988602071832
aa(lp262
I0
aF0.6544984694978736
aa(lp263
I6
aF-0.5522330836388308
aa(lp264
I7
aF-0.4908738521234052
aa(lp265
I1
aF0.10798764552478549
aa(lp266
I2
aF-0.6596117387908257
aa(lp267
I3
aF1.0533334743481404
aa(lp268
I5
aF1.2067315531367044
aa(lp269
I4
aF0.10226538585904275
aa(lp270
I0
aF0.6544984694978736
aa(lp271
I6
aF-0.38860846626436246
aa(lp272
I7
aF-0.4908738521234052
aa(lp273
I1
aF0.09729579943322257
aa(lp274
I2
aF-0.6647250080837779
aa(lp275
I3
aF1.0584467436410925
aa(lp276
I4
aF0.015339807878856412
aa(lp277
I5
aF1.2476377074803215
aa(lp278
I0
aF0.6544984694978736
aa(lp279
I6
aF-0.24032365676875048
aa(lp280
I7
aF-0.4908738521234052
aa(lp281
I1
aF0.0940882456057537
aa(lp282
I2
aF-0.6749515466696822
aa(lp283
I3
aF1.0584467436410925
aa(lp284
I5
aF1.3038836697027951
aa(lp285
I4
aF0.010226538585904275
aa(lp286
I0
aF0.6442719309119693
aa(lp287
I6
aF-0.11249192444494703
aa(lp288
I7
aF-0.4908738521234052
aa(lp289
I1
aF0.0940882456057537
aa(lp290
I2
aF-0.6902913545485385
aa(lp291
I3
aF1.078899820812901
aa(lp292
I5
aF1.3038836697027951
aa(lp293
I4
aF0.010226538585904275
aa(lp294
I0
aF0.6442719309119693
aa(lp295
I6
aF-0.09715211656609062
aa(lp296
I7
aF-0.4908738521234052
aa(lp297
I1
aF0.0940882456057537
aa(lp298
I2
aF-0.7209709703062513
aa(lp299
I4
aF0.056245962222473515
aa(lp300
I5
aF1.2885438618239387
aa(lp301
I3
aF1.114692705863566
aa(lp302
I0
aF0.6442719309119693
aa(lp303
I6
aF-0.10737865515199489
aa(lp304
I7
aF-0.4908738521234052
aa(lp305
I1
aF0.0940882456057537
aa(lp306
I2
aF-0.7363107781851078
aa(lp307
I3
aF1.1249192444494702
aa(lp308
I5
aF1.26809078465213
aa(lp309
I4
aF0.07158577010132992
aa(lp310
I0
aF0.6442719309119693
aa(lp311
I6
aF-0.10737865515199489
aa(lp312
I7
aF-0.4908738521234052
aa(lp313
I1
aF0.11333356857056695
aa(lp314
I2
aF-0.7618771246498685
aa(lp315
I4
aF0.11760519373789917
aa(lp316
I5
aF1.2527509767732736
aa(lp317
I3
aF1.1300325137424223
aa(lp318
I0
aF0.6442719309119693
aa(lp319
I6
aF-0.10737865515199489
aa(lp320
I7
aF-0.4908738521234052
aa(lp321
I1
aF0.12402541466212987
aa(lp322
I2
aF-0.7721036632357727
aa(lp323
I3
aF1.1607121295001352
aa(lp324
I4
aF0.12783173232380343
aa(lp325
I5
aF1.2476377074803215
aa(lp326
I0
aF0.6442719309119693
aa(lp327
I6
aF-0.13294500161675557
aa(lp328
I7
aF-0.4908738521234052
aa(lp329
I1
aF0.14968584528188086
aa(lp330
I2
aF-0.8027832789934856
aa(lp331
I3
aF1.1555988602071832
aa(lp332
I4
aF0.18407769454627695
aa(lp333
I5
aF1.2476377074803215
aa(lp334
I0
aF0.6442719309119693
aa(lp335
I6
aF-0.17896442525332482
aa(lp336
I7
aF-0.4908738521234052
aa(lp337
I1
aF0.15075502989103717
aa(lp338
I2
aF-0.8027832789934856
aa(lp339
I3
aF1.1760519373789917
aa(lp340
I4
aF0.19430423313218123
aa(lp341
I5
aF1.232297899601465
aa(lp342
I0
aF0.634045392326065
aa(lp343
I6
aF-0.17896442525332482
aa(lp344
I7
aF-0.4908738521234052
aa(lp345
I1
aF0.16572361441922526
aa(lp346
I2
aF-0.8027832789934856
aa(lp347
I5
aF1.2118448224296565
aa(lp348
I3
aF1.1811652066719438
aa(lp349
I4
aF0.19941750242513337
aa(lp350
I0
aF0.634045392326065
aa(lp351
I6
aF-0.17896442525332482
aa(lp352
I7
aF-0.4908738521234052
aa(lp353
I1
aF0.16572361441922526
aa(lp354
I2
aF-0.8027832789934856
aa(lp355
I3
aF1.191391745257848
aa(lp356
I4
aF0.19941750242513337
aa(lp357
I5
aF1.2118448224296565
aa(lp358
I0
aF0.634045392326065
aa(lp359
I7
aF-0.4908738521234052
aa(lp360
I6
aF-0.17896442525332482
aa(lp361
I1
aF0.16572361441922526
aa(lp362
I2
aF-0.8027832789934856
aa(lp363
I4
aF0.19941750242513337
aa(lp364
I5
aF1.191391745257848
aa(lp365
I3
aF1.1965050145508003
aa(lp366
I0
aF0.634045392326065
aa(lp367
I6
aF-0.17896442525332482
aa(lp368
I7
aF-0.4908738521234052
aa(lp369
I1
aF0.16572361441922526
aa(lp370
I2
aF-0.8027832789934856
aa(lp371
I4
aF0.19941750242513337
aa(lp372
I3
aF1.1965050145508003
aa(lp373
I5
aF1.1965050145508003
aa(lp374
I0
aF0.634045392326065
aa(lp375
I6
aF-0.17896442525332482
aa(lp376
I7
aF-0.521553467881118
aa(lp377
I1
aF0.16572361441922526
aa(lp378
I2
aF-0.8027832789934856
aa(lp379
I3
aF1.1965050145508003
aa(lp380
I4
aF0.21987057959694192
aa(lp381
I5
aF1.1862784759648959
aa(lp382
I0
aF0.634045392326065
aa(lp383
I6
aF-0.18407769454627695
aa(lp384
I7
aF-0.6749515466696822
aa(lp385
I1
aF0.16465442981006898
aa(lp386
I2
aF-0.8130098175793898
aa(lp387
I3
aF1.1965050145508003
aa(lp388
I4
aF0.23521038747579834
aa(lp389
I5
aF1.191391745257848
aa(lp390
I0
aF0.634045392326065
aa(lp391
I6
aF-0.19430423313218123
aa(lp392
I7
aF-0.7721036632357727
aa(lp393
I1
aF0.16358524520091267
aa(lp394
I2
aF-0.818123086872342
aa(lp395
I3
aF1.191391745257848
aa(lp396
I5
aF1.1862784759648959
aa(lp397
I4
aF0.21987057959694192
aa(lp398
I6
aF-0.19430423313218123
aa(lp399
I0
aF0.6442719309119693
aa(lp400
I7
aF-0.7721036632357727
aa(lp401
I1
aF0.16358524520091267
aa(lp402
I3
aF1.1760519373789917
aa(lp403
I2
aF-0.8130098175793898
aa(lp404
I4
aF0.21987057959694192
aa(lp405
I5
aF1.1300325137424223
aa(lp406
I0
aF0.6442719309119693
aa(lp407
I6
aF-0.1891909638392291
aa(lp408
I7
aF-0.7721036632357727
aa(lp409
I1
aF0.1582393221551312
aa(lp410
I2
aF-0.818123086872342
aa(lp411
I3
aF1.1198059751565181
aa(lp412
I4
aF0.2045307717180855
aa(lp413
I5
aF1.1300325137424223
aa(lp414
I0
aF0.6442719309119693
aa(lp415
I6
aF-0.1891909638392291
aa(lp416
I7
aF-0.7721036632357727
aa(lp417
I1
aF0.11012601474309808
aa(lp418
I2
aF-0.7925567404075813
aa(lp419
I3
aF1.0175405892974754
aa(lp420
I5
aF1.1300325137424223
aa(lp421
I4
aF0.06647250080837779
aa(lp422
I0
aF0.6493852002049215
aa(lp423
I7
aF-0.7721036632357727
aa(lp424
I6
aF-0.18407769454627695
aa(lp425
I1
aF0.06949699959515898
aa(lp426
I2
aF-0.7465373167710121
aa(lp427
I4
aF0.10226538585904275
aa(lp428
I3
aF0.9357282806102412
aa(lp429
I5
aF0.9612946270750019
aa(lp430
I0
aF0.6442719309119693
aa(lp431
I6
aF-0.1891909638392291
aa(lp432
I7
aF-0.7721036632357727
aa(lp433
I1
aF0.06949699959515898
aa(lp434
I2
aF-0.7516505860639642
aa(lp435
I3
aF0.8794823183877677
aa(lp436
I4
aF0.11249192444494703
aa(lp437
I5
aF0.9919742428327146
aa(lp438
I0
aF0.6442719309119693
aa(lp439
I6
aF-0.1891909638392291
aa(lp440
I7
aF-0.7721036632357727
aa(lp441
I1
aF0.06842781498600269
aa(lp442
I2
aF-0.7618771246498685
aa(lp443
I4
aF0.1380582709097077
aa(lp444
I5
aF0.9715211656609062
aa(lp445
I3
aF0.8794823183877677
aa(lp446
I0
aF0.6135923151542565
aa(lp447
I6
aF-0.1891909638392291
aa(lp448
I7
aF-0.7721036632357727
aa(lp449
I1
aF0.06842781498600269
aa(lp450
I2
aF-0.7005178931344428
aa(lp451
I3
aF0.8845955876807198
aa(lp452
I4
aF0.20964404101103765
aa(lp453
I5
aF0.9255017420243369
aa(lp454
I0
aF0.3937217355573146
aa(lp455
I6
aF-0.19430423313218123
aa(lp456
I7
aF-0.7721036632357727
aa(lp457
I1
aF0.06522026115853381
aa(lp458
I2
aF-0.38860846626436246
aa(lp459
I3
aF0.894822126266624
aa(lp460
I4
aF0.2045307717180855
aa(lp461
I5
aF0.889708856973672
aa(lp462
I0
aF0.04601942363656924
aa(lp463
I6
aF-0.2045307717180855
aa(lp464
I7
aF-0.7721036632357727
aa(lp465
I1
aF0.06522026115853381
aa(lp466
I2
aF-0.17896442525332482
aa(lp467
I3
aF0.9050486648525283
aa(lp468
I5
aF0.8078965482864378
aa(lp469
I4
aF0.20964404101103765
aa(lp470
I0
aF-0.23521038747579834
aa(lp471
I6
aF-0.24032365676875048
aa(lp472
I7
aF-0.7721036632357727
aa(lp473
I1
aF0.0791196610775656
aa(lp474
I3
aF0.9152752034384326
aa(lp475
I4
aF0.21475731030398978
aa(lp476
I5
aF0.7209709703062513
aa(lp477
I2
aF-0.02556634646476069
aa(lp478
I7
aF-0.7721036632357727
aa(lp479
I0
aF-0.43974115919388385
aa(lp480
I6
aF-0.2505501953546547
aa(lp481
I1
aF0.22239039870450872
aa(lp482
I2
aF0.0409061543436171
aa(lp483
I4
aF0.20964404101103765
aa(lp484
I3
aF0.8130098175793898
aa(lp485
I5
aF0.6596117387908257
aa(lp486
I0
aF-0.5420065450529266
aa(lp487
I6
aF-0.3119094268700804
aa(lp488
I7
aF-0.7721036632357727
aa(lp489
I1
aF0.508931873958395
aa(lp490
I2
aF0.06135923151542565
aa(lp491
I3
aF0.5522330836388308
aa(lp492
I5
aF0.6596117387908257
aa(lp493
I4
aF0.21475731030398978
aa(lp494
I0
aF-0.6135923151542565
aa(lp495
I6
aF-0.37326865838550605
aa(lp496
I7
aF-0.7721036632357727
aa(lp497
I1
aF0.9398132714483807
aa(lp498
I2
aF0.11249192444494703
aa(lp499
I3
aF0.0409061543436171
aa(lp500
I5
aF0.8999353955595762
aa(lp501
I4
aF0.4346278899009317
aa(lp502
I0
aF-0.6800648159626342
aa(lp503
I6
aF-0.5777994301035916
aa(lp504
I7
aF-0.7721036632357727
aa(lp505
I1
aF1.1301281318782006
aa(lp506
I3
aF-0.06647250080837779
aa(lp507
I2
aF0.11249192444494703
aa(lp508
I5
aF0.9050486648525283
aa(lp509
I4
aF0.5317800064670223
aa(lp510
I0
aF-0.6902913545485385
aa(lp511
I6
aF-0.7260842395992035
aa(lp512
I7
aF-0.7721036632357727
aa(lp513
I1
aF1.3011976693432072
aa(lp514
I2
aF0.11249192444494703
aa(lp515
I3
aF-0.0818123086872342
aa(lp516
I4
aF0.6902913545485385
aa(lp517
I5
aF0.8283496254582463
aa(lp518
I0
aF-0.7158577010132993
aa(lp519
I6
aF-0.8794823183877677
aa(lp520
I7
aF-0.7721036632357727
aa(lp521
I1
aF1.526795621875185
aa(lp522
I2
aF0.11249192444494703
aa(lp523
I4
aF0.8845955876807198
aa(lp524
I3
aF-0.2045307717180855
aa(lp525
I5
aF0.8283496254582463
aa(lp526
I0
aF-0.7311975088921556
aa(lp527
I7
aF-0.7721036632357727
aa(lp528
I6
aF-1.0686732822269966
aa(lp529
I1
aF1.7203180361324737
aa(lp530
I2
aF0.11249192444494703
aa(lp531
I4
aF0.9919742428327146
aa(lp532
I3
aF-0.3425890426277932
aa(lp533
I5
aF0.8130098175793898
aa(lp534
I0
aF-0.7260842395992035
aa(lp535
I6
aF-1.1760519373789917
aa(lp536
I7
aF-0.7721036632357727
aa(lp537
I1
aF1.809060358692446
aa(lp538
I2
aF0.11249192444494703
aa(lp539
I4
aF1.114692705863566
aa(lp540
I5
aF0.7567638553569164
aa(lp541
I3
aF-0.3834951969714103
aa(lp542
I0
aF-0.7158577010132993
aa(lp543
I6
aF-1.2527509767732736
aa(lp544
I7
aF-0.7721036632357727
aa(lp545
I1
aF1.8101295433016023
aa(lp546
I2
aF0.11249192444494703
aa(lp547
I3
aF-0.3834951969714103
aa(lp548
I5
aF0.7567638553569164
aa(lp549
I4
aF1.1300325137424223
aa(lp550
I0
aF-0.7158577010132993
aa(lp551
I6
aF-1.2527509767732736
aa(lp552
I7
aF-0.7721036632357727
aa(lp553
I1
aF1.8101295433016023
aa(lp554
I2
aF0.11249192444494703
aa(lp555
I3
aF-0.3834951969714103
aa(lp556
I4
aF1.1300325137424223
aa(lp557
I5
aF0.7567638553569164
aa(lp558
I0
aF-0.7158577010132993
aa(lp559
I6
aF-1.2527509767732736
aa(lp560
I7
aF-0.7721036632357727
aa(lp561
I1
aF1.8101295433016023
aa(lp562
I2
aF0.11249192444494703
aa(lp563
I3
aF-0.3834951969714103
aa(lp564
I4
aF1.1300325137424223
aa(lp565
I5
aF0.7567638553569164
aa(lp566
I0
aF-0.7158577010132993
aa(lp567
I6
aF-1.2527509767732736
aa(lp568
I7
aF-0.7721036632357727
aa.