(lp0
(lp1
I1
aF1.8229597586114779
aa(lp2
I2
aF0.3937217355573146
aa(lp3
I3
aF-0.26589000323351114
aa(lp4
I4
aF-0.4346278899009317
aa(lp5
I5
aF-0.14828480949561199
aa(lp6
I0
aF0.14317154020265985
aa(lp7
I6
aF-0.3170226961630325
aa(lp8
I7
aF-0.9203884727313848
aa(lp9
I1
aF1.8229597586114779
aa(lp10
I2
aF0.3937217355573146
aa(lp11
I3
aF-0.26589000323351114
aa(lp12
I4
aF-0.4346278899009317
aa(lp13
I5
aF-0.14828480949561199
aa(lp14
I0
aF0.14317154020265985
aa(lp15
I6
aF-0.3119094268700804
aa(lp16
I7
aF-0.9203884727313848
aa(lp17
I1
aF1.8229597586114779
aa(lp18
I2
aF0.3937217355573146
aa(lp19
I4
aF-0.4346278899009317
aa(lp20
I5
aF-0.14828480949561199
aa(lp21
I3
aF-0.26589000323351114
aa(lp22
I0
aF0.14317154020265985
aa(lp23
I6
aF-0.3170226961630325
aa(lp24
I7
aF-0.9203884727313848
aa(lp25
I1
aF1.8229597586114779
aa(lp26
I2
aF0.39883500485026674
aa(lp27
I3
aF-0.26589000323351114
aa(lp28
I5
aF-0.26589000323351114
aa(lp29
I4
aF-0.41417481272912315
aa(lp30
I0
aF0.1380582709097077
aa(lp31
I6
aF-0.3170226961630325
aa(lp32
I7
aF-0.889708856973672
aa(lp33
I1
aF1.665789621065503
aa(lp34
I2
aF0.30679615757712825
aa(lp35
I3
aF-0.6493852002049215
aa(lp36
I4
aF-0.15339807878856412
aa(lp37
I5
aF0.3528155812136975
aa(lp38
I0
aF0.030679615757712823
aa(lp39
I6
aF-0.30679615757712825
aa(lp40
I7
aF-0.7925567404075813
aa(lp41
I1
aF0.3838372746871088
aa(lp42
I2
aF0.0
aa(lp43
I3
aF0.16873788666742054
aa(lp44
I5
aF0.9970875121256668
aa(lp45
I4
aF0.07158577010132992
aa(lp46
I0
aF-0.015339807878856412
aa(lp47
I6
aF-0.22498384888989406
aa(lp48
I7
aF-0.7874434711146292
aa(lp49
I1
aF-0.2662269676799167
aa(lp50
I2
aF-0.07669903939428206
aa(lp51
I4
aF0.11760519373789917
aa(lp52
I5
aF1.0584467436410925
aa(lp53
I3
aF0.7976700097005335
aa(lp54
I0
aF-0.015339807878856412
aa(lp55
I6
aF-0.21475731030398978
aa(lp56
I7
aF-0.7772169325287249
aa(lp57
I1
aF-0.4287430282716731
aa(lp58
I2
aF-0.11760519373789917
aa(lp59
I3
aF1.0124273200045233
aa(lp60
I4
aF0.12783173232380343
aa(lp61
I5
aF0.9817477042468103
aa(lp62
I0
aF-0.015339807878856412
aa(lp63
I6
aF-0.21475731030398978
aa(lp64
I7
aF-0.7874434711146292
aa(lp65
I1
aF-0.4287430282716731
aa(lp66
I2
aF-0.10737865515199489
aa(lp67
I4
aF-0.03579288505066496
aa(lp68
I5
aF0.9715211656609062
aa(lp69
I3
aF1.007314050711571
aa(lp70
I0
aF-0.0051132692929521375
aa(lp71
I6
aF-0.21987057959694192
aa(lp72
I7
aF-0.7721036632357727
aa(lp73
I1
aF-0.4362273205357671
aa(lp74
I2
aF-0.10737865515199489
aa(lp75
I3
aF1.043106935762236
aa(lp76
I4
aF0.06647250080837779
aa(lp77
I5
aF0.966407896367954
aa(lp78
I0
aF-0.0051132692929521375
aa(lp79
I6
aF-0.21475731030398978
aa(lp80
I7
aF-0.5471198143458788
aa(lp81
I1
aF-0.4415732435815486
aa(lp82
I2
aF-0.10737865515199489
aa(lp83
I3
aF1.0635600129340446
aa(lp84
I4
aF0.0818123086872342
aa(lp85
I5
aF0.9612946270750019
aa(lp86
I0
aF-0.0051132692929521375
aa(lp87
I6
aF-0.21475731030398978
aa(lp88
I7
aF-0.26589000323351114
aa(lp89
I1
aF-0.4415732435815486
aa(lp90
I2
aF-0.10737865515199489
aa(lp91
I4
aF0.0818123086872342
aa(lp92
I3
aF1.0635600129340446
aa(lp93
I5
aF0.9510680884890976
aa(lp94
I0
aF-0.0051132692929521375
aa(lp95
I6
aF-0.21475731030398978
aa(lp96
I7
aF-0.1891909638392291
aa(lp97
I1
aF-0.3207553827468876
aa(lp98
I3
aF1.007314050711571
aa(lp99
I2
aF-0.11249192444494703
aa(lp100
I5
aF0.8590292412159591
aa(lp101
I4
aF0.11249192444494703
aa(lp102
I0
aF-0.010226538585904275
aa(lp103
I6
aF-0.21475731030398978
aa(lp104
I7
aF-0.1891909638392291
aa(lp105
I1
aF-0.053459230457814595
aa(lp106
I2
aF-0.17385115596037268
aa(lp107
I3
aF0.8232363561652941
aa(lp108
I5
aF0.8743690490948155
aa(lp109
I4
aF0.2300971181828462
aa(lp110
I0
aF-0.015339807878856412
aa(lp111
I6
aF-0.21475731030398978
aa(lp112
I7
aF-0.1891909638392291
aa(lp113
I1
aF-0.001069184609156292
aa(lp114
I2
aF-0.19430423313218123
aa(lp115
I3
aF0.7669903939428206
aa(lp116
I4
aF0.21987057959694192
aa(lp117
I5
aF0.8999353955595762
aa(lp118
I0
aF-0.015339807878856412
aa(lp119
I6
aF-0.21475731030398978
aa(lp120
I7
aF-0.1891909638392291
aa(lp121
I1
aF-0.001069184609156292
aa(lp122
I2
aF-0.19941750242513337
aa(lp123
I3
aF0.7618771246498685
aa(lp124
I4
aF0.21987057959694192
aa(lp125
I5
aF0.8999353955595762
aa(lp126
I0
aF-0.015339807878856412
aa(lp127
I6
aF-0.21475731030398978
aa(lp128
I7
aF-0.1891909638392291
aa(lp129
I1
aF0.0
aa(lp130
I2
aF-0.19941750242513337
aa(lp131
I3
aF0.7618771246498685
aa(lp132
I4
aF0.21987057959694192
aa(lp133
I5
aF0.8999353955595762
aa(lp134
I0
aF-0.015339807878856412
aa(lp135
I6
aF-0.21475731030398978
aa(lp136
I7
aF-0.1891909638392291
aa(lp137
I1
aF0.0
aa(lp138
I2
aF-0.19941750242513337
aa(lp139
I3
aF0.7618771246498685
aa(lp140
I5
aF0.9152752034384326
aa(lp141
I4
aF0.21475731030398978
aa(lp142
I0
aF-0.015339807878856412
aa(lp143
I6
aF-0.21475731030398978
aa(lp144
I7
aF-0.1891909638392291
aa(lp145
I1
aF0.0
aa(lp146
I2
aF-0.19941750242513337
aa(lp147
I4
aF0.21475731030398978
aa(lp148
I3
aF0.7516505860639642
aa(lp149
I5
aF0.8488027026300549
aa(lp150
I0
aF-0.015339807878856412
aa(lp151
I6
aF-0.21475731030398978
aa(lp152
I7
aF-0.1891909638392291
aa(lp153
I1
aF0.0074842922640940435
aa(lp154
I2
aF-0.17896442525332482
aa(lp155
I3
aF0.5062136600022616
aa(lp156
I5
aF0.6596117387908257
aa(lp157
I4
aF0.21475731030398978
aa(lp158
I0
aF-0.010226538585904275
aa(lp159
I6
aF-0.21475731030398978
aa(lp160
I7
aF-0.1891909638392291
aa(lp161
I1
aF0.06201270733106493
aa(lp162
I2
aF-0.17385115596037268
aa(lp163
I4
aF0.15339807878856412
aa(lp164
I3
aF1.002200781418619
aa(lp165
I5
aF1.1709386680860394
aa(lp166
I0
aF-0.010226538585904275
aa(lp167
I6
aF-0.21475731030398978
aa(lp168
I7
aF-0.1891909638392291
aa(lp169
I1
aF0.14327073762694312
aa(lp170
I2
aF-0.17385115596037268
aa(lp171
I3
aF0.26589000323351114
aa(lp172
I5
aF0.7874434711146292
aa(lp173
I4
aF0.1380582709097077
aa(lp174
I0
aF-0.0051132692929521375
aa(lp175
I6
aF-0.21475731030398978
aa(lp176
I7
aF-0.1891909638392291
aa(lp177
I1
aF0.4458499820181738
aa(lp178
I2
aF-0.17385115596037268
aa(lp179
I3
aF0.03579288505066496
aa(lp180
I5
aF1.4777348256631677
aa(lp181
I4
aF0.13294500161675557
aa(lp182
I0
aF0.0
aa(lp183
I6
aF-0.21475731030398978
aa(lp184
I7
aF-0.1891909638392291
aa(lp185
I1
aF0.714215318916403
aa(lp186
I2
aF-0.17385115596037268
aa(lp187
I4
aF0.06135923151542565
aa(lp188
I3
aF-0.1891909638392291
aa(lp189
I5
aF1.5339807878856413
aa(lp190
I0
aF-0.015339807878856412
aa(lp191
I6
aF-0.21475731030398978
aa(lp192
I7
aF-0.1891909638392291
aa(lp193
I1
aF0.6832089652508706
aa(lp194
I2
aF-0.17385115596037268
aa(lp195
I3
aF-0.30679615757712825
aa(lp196
I5
aF0.8488027026300549
aa(lp197
I4
aF0.2300971181828462
aa(lp198
I0
aF-0.015339807878856412
aa(lp199
I6
aF-0.21475731030398978
aa(lp200
I7
aF-0.1891909638392291
aa(lp201
I1
aF0.3047176136095432
aa(lp202
I2
aF-0.17896442525332482
aa(lp203
I5
aF0.8385761640441506
aa(lp204
I4
aF0.22498384888989406
aa(lp205
I3
aF0.3681553890925539
aa(lp206
I0
aF-0.015339807878856412
aa(lp207
I6
aF-0.21475731030398978
aa(lp208
I7
aF-0.1891909638392291
aa(lp209
I1
aF0.25660430619751007
aa(lp210
I2
aF-0.1891909638392291
aa(lp211
I4
aF0.21475731030398978
aa(lp212
I5
aF0.8743690490948155
aa(lp213
I3
aF0.4601942363656924
aa(lp214
I0
aF-0.015339807878856412
aa(lp215
I6
aF-0.21475731030398978
aa(lp216
I7
aF-0.1891909638392291
aa(lp217
I1
aF-0.04597493819372055
aa(lp218
I2
aF-0.19430423313218123
aa(lp219
I3
aF0.705631162427395
aa(lp220
I4
aF0.09715211656609062
aa(lp221
I5
aF1.0686732822269966
aa(lp222
I0
aF-0.0051132692929521375
aa(lp223
I6
aF-0.21475731030398978
aa(lp224
I7
aF-0.1891909638392291
aa(lp225
I1
aF-0.3849064592962651
aa(lp226
I2
aF-0.15851134808151626
aa(lp227
I3
aF0.9919742428327146
aa(lp228
I4
aF0.07669903939428206
aa(lp229
I5
aF1.048220205055188
aa(lp230
I0
aF-0.0051132692929521375
aa(lp231
I6
aF-0.21475731030398978
aa(lp232
I7
aF-0.1891909638392291
aa(lp233
I1
aF-0.42339710522589163
aa(lp234
I2
aF-0.14828480949561199
aa(lp235
I3
aF1.048220205055188
aa(lp236
I4
aF0.06135923151542565
aa(lp237
I5
aF1.048220205055188
aa(lp238
I0
aF-0.0051132692929521375
aa(lp239
I6
aF-0.21475731030398978
aa(lp240
I7
aF-0.1891909638392291
aa(lp241
I1
aF-0.42339710522589163
aa(lp242
I2
aF-0.14828480949561199
aa(lp243
I3
aF1.0686732822269966
aa(lp244
I5
aF1.0328803971763318
aa(lp245
I4
aF0.10226538585904275
aa(lp246
I0
aF-0.0051132692929521375
aa(lp247
I6
aF-0.21475731030398978
aa(lp248
I7
aF-0.38860846626436246
aa(lp249
I1
aF-0.42339710522589163
aa(lp250
I2
aF-0.14828480949561199
aa(lp251
I3
aF1.0686732822269966
aa(lp252
I4
aF0.12783173232380343
aa(lp253
I5
aF1.0942396286917575
aa(lp254
I6
aF-0.21475731030398978
aa(lp255
I0
aF-0.0051132692929521375
aa(lp256
I7
aF-0.6391586616190172
aa(lp257
I1
aF-0.41484362835264127
aa(lp258
I2
aF-0.15851134808151626
aa(lp259
I3
aF1.0635600129340446
aa(lp260
I4
aF0.17385115596037268
aa(lp261
I5
aF1.114692705863566
aa(lp262
I0
aF-0.0051132692929521375
aa(lp263
I6
aF-0.2045307717180855
aa(lp264
I7
aF-0.7925567404075813
aa(lp265
I1
aF-0.11119519935225436
aa(lp266
I2
aF-0.15339807878856412
aa(lp267
I3
aF1.048220205055188
aa(lp268
I4
aF0.19430423313218123
aa(lp269
I5
aF0.5011003907093095
aa(lp270
I0
aF-0.0051132692929521375
aa(lp271
I6
aF-0.19941750242513337
aa(lp272
I7
aF-0.7721036632357727
aa(lp273
I1
aF0.8083035645221567
aa(lp274
I2
aF-0.15339807878856412
aa(lp275
I3
aF0.15851134808151626
aa(lp276
I5
aF0.5011003907093095
aa(lp277
I4
aF0.1891909638392291
aa(lp278
I0
aF-0.02045307717180855
aa(lp279
I6
aF-0.19941750242513337
aa(lp280
I7
aF-0.7721036632357727
aa(lp281
I1
aF1.3749714073749915
aa(lp282
I2
aF-0.09715211656609062
aa(lp283
I4
aF0.19430423313218123
aa(lp284
I5
aF0.25566346464760686
aa(lp285
I3
aF-0.13294500161675557
aa(lp286
I0
aF-0.02556634646476069
aa(lp287
I6
aF-0.19941750242513337
aa(lp288
I7
aF-0.7721036632357727
aa(lp289
I1
aF1.8325824200938845
aa(lp290
I2
aF-0.056245962222473515
aa(lp291
I3
aF-0.4192880820220753
aa(lp292
I5
aF0.09715211656609062
aa(lp293
I4
aF0.19430423313218123
aa(lp294
I0
aF-0.02045307717180855
aa(lp295
I6
aF-0.19941750242513337
aa(lp296
I7
aF-0.7567638553569164
aa(lp297
I1
aF1.831513235484728
aa(lp298
I2
aF-0.056245962222473515
aa(lp299
I3
aF-0.25566346464760686
aa(lp300
I5
aF-0.11760519373789917
aa(lp301
I4
aF0.17385115596037268
aa(lp302
I0
aF-0.02045307717180855
aa(lp303
I6
aF-0.19941750242513337
aa(lp304
I7
aF-0.7567638553569164
aa(lp305
I1
aF1.831513235484728
aa(lp306
I2
aF-0.056245962222473515
aa(lp307
I3
aF-0.25566346464760686
aa(lp308
I5
aF-0.11760519373789917
aa(lp309
I4
aF0.17385115596037268
aa(lp310
I0
aF-0.02045307717180855
aa(lp311
I6
aF-0.19941750242513337
aa(lp312
I7
aF-0.7567638553569164
aa(lp313
I1
aF1.831513235484728
aa(lp314
I2
aF-0.056245962222473515
aa(lp315
I3
aF-0.25566346464760686
aa(lp316
I4
aF0.17385115596037268
aa(lp317
I5
aF-0.11760519373789917
aa(lp318
I0
aF-0.02045307717180855
aa(lp319
I6
aF-0.19941750242513337
aa(lp320
I7
aF-0.7567638553569164
aa.