(lp0
(lp1
S'shoulder_pan_joint'
p2
aF-0.07669903939428206
aa(lp3
S'gripper_roll_joint'
p4
aF-0.015339807878856412
aa(lp5
S'gripper_grip_joint'
p6
aF-0.010226538585904275
aa(lp7
S'gripper_roll_joint'
p8
aF-0.015339807878856412
aa(lp9
S'shoulder_pan_joint'
p10
aF-0.07669903939428206
aa(lp11
S'gripper_grip_joint'
p12
aF-0.010226538585904275
aa(lp13
S'shoulder_pitch_joint'
p14
aF1.829374866266415
aa(lp15
S'elbow_pitch_joint'
p16
aF-0.32213596545598466
aa(lp17
S'elbow_roll_joint'
p18
aF0.056245962222473515
aa(lp19
S'wrist_pitch_joint'
p20
aF-0.0818123086872342
aa(lp21
S'wrist_roll_joint'
p22
aF-0.05113269292952138
aa(lp23
S'gripper_roll_joint'
p24
aF-0.015339807878856412
aa(lp25
S'gripper_grip_joint'
p26
aF-0.010226538585904275
aa(lp27
S'shoulder_pan_joint'
p28
aF-0.07669903939428206
aa(lp29
S'elbow_roll_joint'
p30
aF0.056245962222473515
aa(lp31
S'elbow_pitch_joint'
p32
aF-0.32213596545598466
aa(lp33
S'shoulder_pitch_joint'
p34
aF1.829374866266415
aa(lp35
S'wrist_pitch_joint'
p36
aF-0.0818123086872342
aa(lp37
S'wrist_roll_joint'
p38
aF-0.05113269292952138
aa(lp39
S'shoulder_pan_joint'
p40
aF-0.07669903939428206
aa(lp41
S'gripper_grip_joint'
p42
aF-0.010226538585904275
aa(lp43
S'gripper_roll_joint'
p44
aF-0.015339807878856412
aa(lp45
S'elbow_pitch_joint'
p46
aF-0.32213596545598466
aa(lp47
S'wrist_roll_joint'
p48
aF-0.05113269292952138
aa(lp49
S'shoulder_pitch_joint'
p50
aF1.829374866266415
aa(lp51
S'wrist_pitch_joint'
p52
aF-0.0818123086872342
aa(lp53
S'elbow_roll_joint'
p54
aF0.056245962222473515
aa(lp55
S'gripper_grip_joint'
p56
aF-0.010226538585904275
aa(lp57
S'shoulder_pan_joint'
p58
aF-0.07669903939428206
aa(lp59
S'gripper_roll_joint'
p60
aF-0.015339807878856412
aa(lp61
S'wrist_roll_joint'
p62
aF-0.05113269292952138
aa(lp63
S'wrist_pitch_joint'
p64
aF-0.0818123086872342
aa(lp65
S'elbow_roll_joint'
p66
aF0.056245962222473515
aa(lp67
S'shoulder_pitch_joint'
p68
aF1.829374866266415
aa(lp69
S'elbow_pitch_joint'
p70
aF-0.32213596545598466
aa(lp71
S'shoulder_pan_joint'
p72
aF-0.07669903939428206
aa(lp73
S'gripper_grip_joint'
p74
aF-0.010226538585904275
aa(lp75
S'gripper_roll_joint'
p76
aF-0.015339807878856412
aa(lp77
S'wrist_pitch_joint'
p78
aF-0.0818123086872342
aa(lp79
S'wrist_roll_joint'
p80
aF-0.05113269292952138
aa(lp81
S'shoulder_pitch_joint'
p82
aF1.829374866266415
aa(lp83
S'elbow_roll_joint'
p84
aF0.056245962222473515
aa(lp85
S'elbow_pitch_joint'
p86
aF-0.32213596545598466
aa(lp87
S'gripper_grip_joint'
p88
aF-0.010226538585904275
aa(lp89
S'shoulder_pan_joint'
p90
aF-0.07669903939428206
aa(lp91
S'gripper_roll_joint'
p92
aF-0.015339807878856412
aa(lp93
S'wrist_roll_joint'
p94
aF-0.05113269292952138
aa(lp95
S'shoulder_pitch_joint'
p96
aF1.829374866266415
aa(lp97
S'elbow_roll_joint'
p98
aF0.056245962222473515
aa(lp99
S'elbow_pitch_joint'
p100
aF-0.32213596545598466
aa(lp101
S'wrist_pitch_joint'
p102
aF-0.0818123086872342
aa(lp103
S'shoulder_pan_joint'
p104
aF-0.07669903939428206
aa(lp105
S'gripper_grip_joint'
p106
aF-0.010226538585904275
aa(lp107
S'gripper_roll_joint'
p108
aF-0.015339807878856412
aa(lp109
S'elbow_roll_joint'
p110
aF0.056245962222473515
aa(lp111
S'elbow_pitch_joint'
p112
aF-0.32213596545598466
aa(lp113
S'shoulder_pitch_joint'
p114
aF1.829374866266415
aa(lp115
S'wrist_pitch_joint'
p116
aF-0.0818123086872342
aa(lp117
S'wrist_roll_joint'
p118
aF-0.05113269292952138
aa(lp119
S'gripper_grip_joint'
p120
aF-0.010226538585904275
aa(lp121
S'shoulder_pan_joint'
p122
aF-0.07669903939428206
aa(lp123
S'gripper_roll_joint'
p124
aF-0.015339807878856412
aa(lp125
S'wrist_roll_joint'
p126
aF-0.05113269292952138
aa(lp127
S'shoulder_pitch_joint'
p128
aF1.829374866266415
aa(lp129
S'wrist_pitch_joint'
p130
aF-0.0818123086872342
aa(lp131
S'elbow_roll_joint'
p132
aF0.056245962222473515
aa(lp133
S'elbow_pitch_joint'
p134
aF-0.32213596545598466
aa(lp135
S'gripper_roll_joint'
p136
aF-0.015339807878856412
aa(lp137
S'gripper_grip_joint'
p138
aF-0.010226538585904275
aa(lp139
S'shoulder_pan_joint'
p140
aF-0.07669903939428206
aa(lp141
S'elbow_roll_joint'
p142
aF0.056245962222473515
aa(lp143
S'wrist_pitch_joint'
p144
aF-0.0818123086872342
aa(lp145
S'elbow_pitch_joint'
p146
aF-0.32213596545598466
aa(lp147
S'wrist_roll_joint'
p148
aF-0.05113269292952138
aa(lp149
S'shoulder_pitch_joint'
p150
aF1.829374866266415
aa(lp151
S'gripper_roll_joint'
p152
aF-0.015339807878856412
aa(lp153
S'gripper_grip_joint'
p154
aF-0.010226538585904275
aa(lp155
S'shoulder_pan_joint'
p156
aF-0.07669903939428206
aa(lp157
S'wrist_roll_joint'
p158
aF-0.05113269292952138
aa(lp159
S'shoulder_pitch_joint'
p160
aF1.829374866266415
aa(lp161
S'elbow_pitch_joint'
p162
aF-0.32213596545598466
aa(lp163
S'elbow_roll_joint'
p164
aF0.056245962222473515
aa(lp165
S'wrist_pitch_joint'
p166
aF-0.0818123086872342
aa(lp167
S'gripper_grip_joint'
p168
aF-0.010226538585904275
aa(lp169
S'shoulder_pan_joint'
p170
aF-0.07669903939428206
aa(lp171
S'gripper_roll_joint'
p172
aF-0.0051132692929521375
aa(lp173
S'wrist_roll_joint'
p174
aF-0.05113269292952138
aa(lp175
S'wrist_pitch_joint'
p176
aF-0.0818123086872342
aa(lp177
S'elbow_roll_joint'
p178
aF0.056245962222473515
aa(lp179
S'elbow_pitch_joint'
p180
aF-0.32213596545598466
aa(lp181
S'shoulder_pitch_joint'
p182
aF1.829374866266415
aa(lp183
S'shoulder_pan_joint'
p184
aF-0.07669903939428206
aa(lp185
S'gripper_grip_joint'
p186
aF-0.010226538585904275
aa(lp187
S'gripper_roll_joint'
p188
aF-0.015339807878856412
aa(lp189
S'elbow_roll_joint'
p190
aF0.056245962222473515
aa(lp191
S'wrist_roll_joint'
p192
aF-0.05113269292952138
aa(lp193
S'shoulder_pitch_joint'
p194
aF1.829374866266415
aa(lp195
S'elbow_pitch_joint'
p196
aF-0.32213596545598466
aa(lp197
S'wrist_pitch_joint'
p198
aF-0.0818123086872342
aa(lp199
S'gripper_grip_joint'
p200
aF-0.010226538585904275
aa(lp201
S'shoulder_pan_joint'
p202
aF-0.07669903939428206
aa(lp203
S'gripper_roll_joint'
p204
aF-0.015339807878856412
aa(lp205
S'elbow_roll_joint'
p206
aF0.056245962222473515
aa(lp207
S'elbow_pitch_joint'
p208
aF-0.32213596545598466
aa(lp209
S'wrist_pitch_joint'
p210
aF-0.0818123086872342
aa(lp211
S'shoulder_pitch_joint'
p212
aF1.829374866266415
aa(lp213
S'wrist_roll_joint'
p214
aF-0.05113269292952138
aa(lp215
S'gripper_roll_joint'
p216
aF-0.015339807878856412
aa(lp217
S'shoulder_pan_joint'
p218
aF-0.07669903939428206
aa(lp219
S'gripper_grip_joint'
p220
aF-0.010226538585904275
aa(lp221
S'elbow_roll_joint'
p222
aF0.056245962222473515
aa(lp223
S'wrist_pitch_joint'
p224
aF-0.0818123086872342
aa(lp225
S'wrist_roll_joint'
p226
aF-0.05113269292952138
aa(lp227
S'elbow_pitch_joint'
p228
aF-0.32213596545598466
aa(lp229
S'shoulder_pitch_joint'
p230
aF1.829374866266415
aa(lp231
S'gripper_roll_joint'
p232
aF-0.015339807878856412
aa(lp233
S'gripper_grip_joint'
p234
aF-0.010226538585904275
aa(lp235
S'shoulder_pan_joint'
p236
aF-0.07669903939428206
aa(lp237
S'elbow_roll_joint'
p238
aF0.056245962222473515
aa(lp239
S'shoulder_pitch_joint'
p240
aF1.829374866266415
aa(lp241
S'elbow_pitch_joint'
p242
aF-0.32213596545598466
aa(lp243
S'wrist_pitch_joint'
p244
aF-0.0818123086872342
aa(lp245
S'wrist_roll_joint'
p246
aF-0.05113269292952138
aa(lp247
S'shoulder_pan_joint'
p248
aF-0.07669903939428206
aa(lp249
S'gripper_grip_joint'
p250
aF-0.010226538585904275
aa(lp251
S'gripper_roll_joint'
p252
aF-0.015339807878856412
aa(lp253
S'elbow_roll_joint'
p254
aF0.056245962222473515
aa(lp255
S'shoulder_pitch_joint'
p256
aF1.829374866266415
aa(lp257
S'elbow_pitch_joint'
p258
aF-0.32213596545598466
aa(lp259
S'wrist_pitch_joint'
p260
aF-0.0818123086872342
aa(lp261
S'wrist_roll_joint'
p262
aF-0.05113269292952138
aa(lp263
S'gripper_roll_joint'
p264
aF-0.015339807878856412
aa(lp265
S'shoulder_pan_joint'
p266
aF-0.07669903939428206
aa(lp267
S'gripper_grip_joint'
p268
aF-0.010226538585904275
aa(lp269
S'wrist_roll_joint'
p270
aF-0.05113269292952138
aa(lp271
S'elbow_pitch_joint'
p272
aF-0.32213596545598466
aa(lp273
S'wrist_pitch_joint'
p274
aF-0.0818123086872342
aa(lp275
S'shoulder_pitch_joint'
p276
aF1.829374866266415
aa(lp277
S'elbow_roll_joint'
p278
aF0.056245962222473515
aa(lp279
S'gripper_roll_joint'
p280
aF-0.015339807878856412
aa(lp281
S'shoulder_pan_joint'
p282
aF-0.07669903939428206
aa(lp283
S'gripper_grip_joint'
p284
aF-0.010226538585904275
aa(lp285
S'wrist_roll_joint'
p286
aF-0.05113269292952138
aa(lp287
S'wrist_pitch_joint'
p288
aF-0.0818123086872342
aa(lp289
S'elbow_roll_joint'
p290
aF0.056245962222473515
aa(lp291
S'elbow_pitch_joint'
p292
aF-0.32213596545598466
aa(lp293
S'shoulder_pitch_joint'
p294
aF1.829374866266415
aa(lp295
S'gripper_grip_joint'
p296
aF-0.010226538585904275
aa(lp297
S'shoulder_pan_joint'
p298
aF-0.07669903939428206
aa(lp299
S'gripper_roll_joint'
p300
aF-0.015339807878856412
aa(lp301
S'wrist_pitch_joint'
p302
aF-0.0818123086872342
aa(lp303
S'wrist_roll_joint'
p304
aF-0.05113269292952138
aa(lp305
S'elbow_roll_joint'
p306
aF0.056245962222473515
aa(lp307
S'elbow_pitch_joint'
p308
aF-0.32213596545598466
aa(lp309
S'shoulder_pitch_joint'
p310
aF1.829374866266415
aa(lp311
S'gripper_grip_joint'
p312
aF-0.010226538585904275
aa(lp313
S'shoulder_pan_joint'
p314
aF-0.07669903939428206
aa(lp315
S'gripper_roll_joint'
p316
aF-0.015339807878856412
aa(lp317
S'wrist_roll_joint'
p318
aF-0.05113269292952138
aa(lp319
S'elbow_roll_joint'
p320
aF0.056245962222473515
aa(lp321
S'wrist_pitch_joint'
p322
aF-0.0818123086872342
aa(lp323
S'elbow_pitch_joint'
p324
aF-0.32213596545598466
aa(lp325
S'shoulder_pitch_joint'
p326
aF1.829374866266415
aa(lp327
S'shoulder_pan_joint'
p328
aF-0.07669903939428206
aa(lp329
S'gripper_grip_joint'
p330
aF-0.010226538585904275
aa(lp331
S'gripper_roll_joint'
p332
aF-0.015339807878856412
aa(lp333
S'elbow_roll_joint'
p334
aF0.056245962222473515
aa(lp335
S'wrist_roll_joint'
p336
aF-0.05113269292952138
aa(lp337
S'wrist_pitch_joint'
p338
aF-0.0818123086872342
aa(lp339
S'elbow_pitch_joint'
p340
aF-0.32213596545598466
aa(lp341
S'shoulder_pitch_joint'
p342
aF1.829374866266415
aa(lp343
S'gripper_grip_joint'
p344
aF-0.015339807878856412
aa(lp345
S'shoulder_pan_joint'
p346
aF-0.07669903939428206
aa(lp347
S'gripper_roll_joint'
p348
aF-0.015339807878856412
aa(lp349
S'wrist_roll_joint'
p350
aF-0.05113269292952138
aa(lp351
S'elbow_roll_joint'
p352
aF0.056245962222473515
aa(lp353
S'wrist_pitch_joint'
p354
aF-0.0818123086872342
aa(lp355
S'shoulder_pitch_joint'
p356
aF1.829374866266415
aa(lp357
S'elbow_pitch_joint'
p358
aF-0.32213596545598466
aa(lp359
S'shoulder_pan_joint'
p360
aF-0.07669903939428206
aa(lp361
S'gripper_grip_joint'
p362
aF-0.010226538585904275
aa(lp363
S'gripper_roll_joint'
p364
aF-0.015339807878856412
aa(lp365
S'elbow_roll_joint'
p366
aF0.056245962222473515
aa(lp367
S'wrist_roll_joint'
p368
aF-0.05113269292952138
aa(lp369
S'wrist_pitch_joint'
p370
aF-0.0818123086872342
aa(lp371
S'shoulder_pitch_joint'
p372
aF1.829374866266415
aa(lp373
S'elbow_pitch_joint'
p374
aF-0.32213596545598466
aa(lp375
S'gripper_grip_joint'
p376
aF-0.010226538585904275
aa(lp377
S'shoulder_pan_joint'
p378
aF-0.07669903939428206
aa(lp379
S'gripper_roll_joint'
p380
aF-0.015339807878856412
aa(lp381
S'shoulder_pitch_joint'
p382
aF1.829374866266415
aa(lp383
S'wrist_roll_joint'
p384
aF-0.05113269292952138
aa(lp385
S'elbow_pitch_joint'
p386
aF-0.32213596545598466
aa(lp387
S'wrist_pitch_joint'
p388
aF-0.0818123086872342
aa(lp389
S'elbow_roll_joint'
p390
aF0.056245962222473515
aa(lp391
S'shoulder_pan_joint'
p392
aF-0.07669903939428206
aa(lp393
S'gripper_grip_joint'
p394
aF-0.010226538585904275
aa(lp395
S'gripper_roll_joint'
p396
aF-0.015339807878856412
aa(lp397
S'elbow_roll_joint'
p398
aF0.056245962222473515
aa(lp399
S'elbow_pitch_joint'
p400
aF-0.32213596545598466
aa(lp401
S'wrist_pitch_joint'
p402
aF-0.0818123086872342
aa(lp403
S'shoulder_pitch_joint'
p404
aF1.829374866266415
aa(lp405
S'wrist_roll_joint'
p406
aF-0.05113269292952138
aa(lp407
S'gripper_roll_joint'
p408
aF-0.015339807878856412
aa(lp409
S'shoulder_pan_joint'
p410
aF-0.07669903939428206
aa(lp411
S'gripper_grip_joint'
p412
aF-0.010226538585904275
aa(lp413
S'wrist_roll_joint'
p414
aF-0.05113269292952138
aa(lp415
S'wrist_pitch_joint'
p416
aF-0.0818123086872342
aa(lp417
S'shoulder_pitch_joint'
p418
aF1.829374866266415
aa(lp419
S'elbow_pitch_joint'
p420
aF-0.32213596545598466
aa(lp421
S'elbow_roll_joint'
p422
aF0.056245962222473515
aa(lp423
S'gripper_grip_joint'
p424
aF-0.010226538585904275
aa(lp425
S'shoulder_pan_joint'
p426
aF-0.07669903939428206
aa(lp427
S'gripper_roll_joint'
p428
aF-0.02045307717180855
aa(lp429
S'wrist_roll_joint'
p430
aF-0.05113269292952138
aa(lp431
S'wrist_pitch_joint'
p432
aF-0.0818123086872342
aa(lp433
S'shoulder_pitch_joint'
p434
aF1.829374866266415
aa(lp435
S'elbow_pitch_joint'
p436
aF-0.32213596545598466
aa(lp437
S'elbow_roll_joint'
p438
aF0.056245962222473515
aa(lp439
S'gripper_roll_joint'
p440
aF-0.015339807878856412
aa(lp441
S'gripper_grip_joint'
p442
aF-0.010226538585904275
aa(lp443
S'shoulder_pan_joint'
p444
aF-0.07669903939428206
aa(lp445
S'wrist_pitch_joint'
p446
aF-0.0818123086872342
aa(lp447
S'shoulder_pitch_joint'
p448
aF1.829374866266415
aa(lp449
S'elbow_pitch_joint'
p450
aF-0.32213596545598466
aa(lp451
S'wrist_roll_joint'
p452
aF-0.05113269292952138
aa(lp453
S'elbow_roll_joint'
p454
aF0.056245962222473515
aa(lp455
S'gripper_grip_joint'
p456
aF-0.010226538585904275
aa(lp457
S'shoulder_pan_joint'
p458
aF-0.07669903939428206
aa(lp459
S'gripper_roll_joint'
p460
aF-0.015339807878856412
aa(lp461
S'elbow_roll_joint'
p462
aF0.056245962222473515
aa(lp463
S'elbow_pitch_joint'
p464
aF-0.32213596545598466
aa(lp465
S'wrist_roll_joint'
p466
aF-0.05113269292952138
aa(lp467
S'shoulder_pitch_joint'
p468
aF1.829374866266415
aa(lp469
S'wrist_pitch_joint'
p470
aF-0.0818123086872342
aa(lp471
S'shoulder_pan_joint'
p472
aF-0.07669903939428206
aa(lp473
S'gripper_grip_joint'
p474
aF-0.010226538585904275
aa(lp475
S'gripper_roll_joint'
p476
aF-0.015339807878856412
aa(lp477
S'shoulder_pitch_joint'
p478
aF1.829374866266415
aa(lp479
S'wrist_pitch_joint'
p480
aF-0.0818123086872342
aa(lp481
S'elbow_pitch_joint'
p482
aF-0.32213596545598466
aa(lp483
S'wrist_roll_joint'
p484
aF-0.05113269292952138
aa(lp485
S'elbow_roll_joint'
p486
aF0.056245962222473515
aa(lp487
S'shoulder_pan_joint'
p488
aF-0.07669903939428206
aa(lp489
S'gripper_grip_joint'
p490
aF-0.010226538585904275
aa(lp491
S'gripper_roll_joint'
p492
aF-0.015339807878856412
aa(lp493
S'wrist_pitch_joint'
p494
aF-0.0818123086872342
aa(lp495
S'elbow_pitch_joint'
p496
aF-0.32213596545598466
aa(lp497
S'wrist_roll_joint'
p498
aF-0.05113269292952138
aa(lp499
S'shoulder_pitch_joint'
p500
aF1.829374866266415
aa(lp501
S'elbow_roll_joint'
p502
aF0.056245962222473515
aa(lp503
S'gripper_grip_joint'
p504
aF-0.010226538585904275
aa(lp505
S'shoulder_pan_joint'
p506
aF-0.07669903939428206
aa(lp507
S'gripper_roll_joint'
p508
aF-0.015339807878856412
aa(lp509
S'elbow_pitch_joint'
p510
aF-0.32213596545598466
aa(lp511
S'wrist_roll_joint'
p512
aF-0.05113269292952138
aa(lp513
S'shoulder_pitch_joint'
p514
aF1.829374866266415
aa(lp515
S'wrist_pitch_joint'
p516
aF-0.0818123086872342
aa(lp517
S'elbow_roll_joint'
p518
aF0.056245962222473515
aa(lp519
S'gripper_roll_joint'
p520
aF-0.015339807878856412
aa(lp521
S'shoulder_pan_joint'
p522
aF-0.07669903939428206
aa(lp523
S'gripper_grip_joint'
p524
aF-0.010226538585904275
aa(lp525
S'wrist_roll_joint'
p526
aF-0.05113269292952138
aa(lp527
S'elbow_pitch_joint'
p528
aF-0.32213596545598466
aa(lp529
S'shoulder_pitch_joint'
p530
aF1.829374866266415
aa(lp531
S'wrist_pitch_joint'
p532
aF-0.0818123086872342
aa(lp533
S'elbow_roll_joint'
p534
aF0.056245962222473515
aa(lp535
S'shoulder_pan_joint'
p536
aF-0.07669903939428206
aa(lp537
S'gripper_grip_joint'
p538
aF-0.010226538585904275
aa(lp539
S'gripper_roll_joint'
p540
aF-0.015339807878856412
aa(lp541
S'wrist_roll_joint'
p542
aF-0.05113269292952138
aa(lp543
S'shoulder_pitch_joint'
p544
aF1.829374866266415
aa(lp545
S'elbow_pitch_joint'
p546
aF-0.32213596545598466
aa(lp547
S'wrist_pitch_joint'
p548
aF-0.0818123086872342
aa(lp549
S'elbow_roll_joint'
p550
aF0.056245962222473515
aa(lp551
S'shoulder_pan_joint'
p552
aF-0.07669903939428206
aa(lp553
S'gripper_grip_joint'
p554
aF-0.010226538585904275
aa(lp555
S'gripper_roll_joint'
p556
aF-0.015339807878856412
aa(lp557
S'wrist_roll_joint'
p558
aF-0.05113269292952138
aa(lp559
S'elbow_pitch_joint'
p560
aF-0.32213596545598466
aa(lp561
S'shoulder_pitch_joint'
p562
aF1.829374866266415
aa(lp563
S'elbow_roll_joint'
p564
aF0.056245962222473515
aa(lp565
S'wrist_pitch_joint'
p566
aF-0.0818123086872342
aa(lp567
S'shoulder_pan_joint'
p568
aF-0.07669903939428206
aa(lp569
S'gripper_grip_joint'
p570
aF-0.010226538585904275
aa(lp571
S'gripper_roll_joint'
p572
aF-0.015339807878856412
aa(lp573
S'elbow_pitch_joint'
p574
aF-0.32213596545598466
aa(lp575
S'wrist_roll_joint'
p576
aF-0.05113269292952138
aa(lp577
S'shoulder_pitch_joint'
p578
aF1.829374866266415
aa(lp579
S'elbow_roll_joint'
p580
aF0.056245962222473515
aa(lp581
S'wrist_pitch_joint'
p582
aF-0.0818123086872342
aa(lp583
S'shoulder_pan_joint'
p584
aF-0.07669903939428206
aa(lp585
S'gripper_grip_joint'
p586
aF-0.010226538585904275
aa(lp587
S'gripper_roll_joint'
p588
aF-0.015339807878856412
aa(lp589
S'elbow_roll_joint'
p590
aF0.056245962222473515
aa(lp591
S'shoulder_pitch_joint'
p592
aF1.829374866266415
aa(lp593
S'wrist_roll_joint'
p594
aF-0.05113269292952138
aa(lp595
S'elbow_pitch_joint'
p596
aF-0.32213596545598466
aa(lp597
S'wrist_pitch_joint'
p598
aF-0.0818123086872342
aa(lp599
S'shoulder_pan_joint'
p600
aF-0.07669903939428206
aa(lp601
S'gripper_grip_joint'
p602
aF-0.010226538585904275
aa(lp603
S'gripper_roll_joint'
p604
aF-0.015339807878856412
aa(lp605
S'elbow_roll_joint'
p606
aF0.056245962222473515
aa(lp607
S'wrist_roll_joint'
p608
aF-0.05113269292952138
aa(lp609
S'elbow_pitch_joint'
p610
aF-0.32213596545598466
aa(lp611
S'shoulder_pitch_joint'
p612
aF1.829374866266415
aa(lp613
S'wrist_pitch_joint'
p614
aF-0.0818123086872342
aa(lp615
S'shoulder_pan_joint'
p616
aF-0.07669903939428206
aa(lp617
S'gripper_grip_joint'
p618
aF-0.010226538585904275
aa(lp619
S'gripper_roll_joint'
p620
aF-0.015339807878856412
aa(lp621
S'shoulder_pitch_joint'
p622
aF1.829374866266415
aa(lp623
S'wrist_pitch_joint'
p624
aF-0.0818123086872342
aa(lp625
S'elbow_pitch_joint'
p626
aF-0.32213596545598466
aa(lp627
S'elbow_roll_joint'
p628
aF0.056245962222473515
aa(lp629
S'wrist_roll_joint'
p630
aF-0.05113269292952138
aa(lp631
S'shoulder_pan_joint'
p632
aF-0.07669903939428206
aa(lp633
S'gripper_grip_joint'
p634
aF-0.010226538585904275
aa(lp635
S'gripper_roll_joint'
p636
aF-0.015339807878856412
aa(lp637
S'wrist_pitch_joint'
p638
aF-0.0818123086872342
aa(lp639
S'elbow_pitch_joint'
p640
aF-0.32213596545598466
aa(lp641
S'shoulder_pitch_joint'
p642
aF1.829374866266415
aa(lp643
S'elbow_roll_joint'
p644
aF0.056245962222473515
aa(lp645
S'wrist_roll_joint'
p646
aF-0.05113269292952138
aa(lp647
S'gripper_grip_joint'
p648
aF-0.010226538585904275
aa(lp649
S'shoulder_pan_joint'
p650
aF-0.07669903939428206
aa(lp651
S'gripper_roll_joint'
p652
aF-0.015339807878856412
aa(lp653
S'elbow_pitch_joint'
p654
aF-0.32213596545598466
aa(lp655
S'shoulder_pitch_joint'
p656
aF1.829374866266415
aa(lp657
S'wrist_pitch_joint'
p658
aF-0.0818123086872342
aa(lp659
S'elbow_roll_joint'
p660
aF0.056245962222473515
aa(lp661
S'wrist_roll_joint'
p662
aF-0.05113269292952138
aa(lp663
S'shoulder_pan_joint'
p664
aF-0.07669903939428206
aa(lp665
S'gripper_grip_joint'
p666
aF-0.010226538585904275
aa(lp667
S'gripper_roll_joint'
p668
aF-0.015339807878856412
aa(lp669
S'elbow_roll_joint'
p670
aF0.056245962222473515
aa(lp671
S'wrist_roll_joint'
p672
aF-0.05113269292952138
aa(lp673
S'elbow_pitch_joint'
p674
aF-0.32213596545598466
aa(lp675
S'wrist_pitch_joint'
p676
aF-0.0818123086872342
aa(lp677
S'shoulder_pitch_joint'
p678
aF1.829374866266415
aa(lp679
S'gripper_roll_joint'
p680
aF-0.015339807878856412
aa(lp681
S'shoulder_pan_joint'
p682
aF-0.07669903939428206
aa(lp683
S'gripper_grip_joint'
p684
aF-0.010226538585904275
aa(lp685
S'elbow_roll_joint'
p686
aF0.056245962222473515
aa(lp687
S'wrist_roll_joint'
p688
aF-0.05113269292952138
aa(lp689
S'wrist_pitch_joint'
p690
aF-0.0818123086872342
aa(lp691
S'elbow_pitch_joint'
p692
aF-0.32213596545598466
aa(lp693
S'shoulder_pitch_joint'
p694
aF1.829374866266415
aa(lp695
S'gripper_roll_joint'
p696
aF-0.015339807878856412
aa(lp697
S'shoulder_pan_joint'
p698
aF-0.07669903939428206
aa(lp699
S'gripper_grip_joint'
p700
aF-0.010226538585904275
aa(lp701
S'elbow_pitch_joint'
p702
aF-0.32213596545598466
aa(lp703
S'shoulder_pitch_joint'
p704
aF1.829374866266415
aa(lp705
S'wrist_pitch_joint'
p706
aF-0.0818123086872342
aa(lp707
S'wrist_roll_joint'
p708
aF-0.05113269292952138
aa(lp709
S'elbow_roll_joint'
p710
aF0.056245962222473515
aa(lp711
S'shoulder_pan_joint'
p712
aF-0.07669903939428206
aa(lp713
S'gripper_grip_joint'
p714
aF-0.010226538585904275
aa(lp715
S'gripper_roll_joint'
p716
aF-0.015339807878856412
aa(lp717
S'shoulder_pitch_joint'
p718
aF1.829374866266415
aa(lp719
S'wrist_pitch_joint'
p720
aF-0.0818123086872342
aa(lp721
S'elbow_pitch_joint'
p722
aF-0.32213596545598466
aa(lp723
S'wrist_roll_joint'
p724
aF-0.05113269292952138
aa(lp725
S'elbow_roll_joint'
p726
aF0.056245962222473515
aa(lp727
S'shoulder_pan_joint'
p728
aF-0.07669903939428206
aa(lp729
S'gripper_grip_joint'
p730
aF-0.010226538585904275
aa(lp731
S'gripper_roll_joint'
p732
aF-0.015339807878856412
aa(lp733
S'shoulder_pitch_joint'
p734
aF1.829374866266415
aa(lp735
S'elbow_pitch_joint'
p736
aF-0.32213596545598466
aa(lp737
S'wrist_pitch_joint'
p738
aF-0.0818123086872342
aa(lp739
S'wrist_roll_joint'
p740
aF-0.05113269292952138
aa(lp741
S'elbow_roll_joint'
p742
aF0.056245962222473515
aa(lp743
S'shoulder_pan_joint'
p744
aF-0.07669903939428206
aa(lp745
S'gripper_grip_joint'
p746
aF-0.010226538585904275
aa(lp747
S'gripper_roll_joint'
p748
aF-0.015339807878856412
aa(lp749
S'wrist_roll_joint'
p750
aF-0.05113269292952138
aa(lp751
S'elbow_roll_joint'
p752
aF0.056245962222473515
aa(lp753
S'wrist_pitch_joint'
p754
aF-0.0818123086872342
aa(lp755
S'elbow_pitch_joint'
p756
aF-0.32213596545598466
aa(lp757
S'shoulder_pitch_joint'
p758
aF1.829374866266415
aa(lp759
S'shoulder_pan_joint'
p760
aF-0.07669903939428206
aa(lp761
S'gripper_grip_joint'
p762
aF-0.010226538585904275
aa(lp763
S'gripper_roll_joint'
p764
aF-0.015339807878856412
aa(lp765
S'elbow_roll_joint'
p766
aF0.056245962222473515
aa(lp767
S'wrist_pitch_joint'
p768
aF-0.0818123086872342
aa(lp769
S'elbow_pitch_joint'
p770
aF-0.32213596545598466
aa(lp771
S'wrist_roll_joint'
p772
aF-0.05113269292952138
aa(lp773
S'shoulder_pitch_joint'
p774
aF1.829374866266415
aa(lp775
S'shoulder_pan_joint'
p776
aF-0.07669903939428206
aa(lp777
S'gripper_grip_joint'
p778
aF-0.010226538585904275
aa(lp779
S'gripper_roll_joint'
p780
aF-0.015339807878856412
aa(lp781
S'wrist_pitch_joint'
p782
aF-0.0818123086872342
aa(lp783
S'wrist_roll_joint'
p784
aF-0.05113269292952138
aa(lp785
S'elbow_roll_joint'
p786
aF0.056245962222473515
aa(lp787
S'shoulder_pitch_joint'
p788
aF1.829374866266415
aa(lp789
S'elbow_pitch_joint'
p790
aF-0.32213596545598466
aa(lp791
S'elbow_pitch_joint'
p792
aF-0.32213596545598466
aa(lp793
S'wrist_pitch_joint'
p794
aF-0.0818123086872342
aa(lp795
S'shoulder_pitch_joint'
p796
aF1.829374866266415
aa(lp797
S'wrist_roll_joint'
p798
aF-0.05113269292952138
aa(lp799
S'elbow_roll_joint'
p800
aF0.056245962222473515
aa(lp801
S'shoulder_pan_joint'
p802
aF-0.07669903939428206
aa(lp803
S'gripper_grip_joint'
p804
aF-0.010226538585904275
aa(lp805
S'gripper_roll_joint'
p806
aF-0.015339807878856412
aa(lp807
S'shoulder_pan_joint'
p808
aF-0.07669903939428206
aa(lp809
S'gripper_grip_joint'
p810
aF-0.010226538585904275
aa(lp811
S'gripper_roll_joint'
p812
aF-0.015339807878856412
aa(lp813
S'wrist_pitch_joint'
p814
aF-0.0818123086872342
aa(lp815
S'wrist_roll_joint'
p816
aF-0.05113269292952138
aa(lp817
S'shoulder_pitch_joint'
p818
aF1.829374866266415
aa(lp819
S'elbow_pitch_joint'
p820
aF-0.32213596545598466
aa(lp821
S'elbow_roll_joint'
p822
aF0.056245962222473515
aa(lp823
S'shoulder_pan_joint'
p824
aF-0.07669903939428206
aa(lp825
S'gripper_grip_joint'
p826
aF-0.010226538585904275
aa(lp827
S'gripper_roll_joint'
p828
aF-0.015339807878856412
aa(lp829
S'elbow_pitch_joint'
p830
aF-0.32213596545598466
aa(lp831
S'wrist_pitch_joint'
p832
aF-0.0818123086872342
aa(lp833
S'shoulder_pitch_joint'
p834
aF1.829374866266415
aa(lp835
S'wrist_roll_joint'
p836
aF-0.05113269292952138
aa(lp837
S'elbow_roll_joint'
p838
aF0.056245962222473515
aa(lp839
S'gripper_roll_joint'
p840
aF-0.015339807878856412
aa(lp841
S'shoulder_pan_joint'
p842
aF-0.07669903939428206
aa(lp843
S'gripper_grip_joint'
p844
aF-0.010226538585904275
aa(lp845
S'elbow_pitch_joint'
p846
aF-0.32213596545598466
aa(lp847
S'wrist_roll_joint'
p848
aF-0.05113269292952138
aa(lp849
S'wrist_pitch_joint'
p850
aF-0.0818123086872342
aa(lp851
S'shoulder_pitch_joint'
p852
aF1.829374866266415
aa(lp853
S'elbow_roll_joint'
p854
aF0.056245962222473515
aa(lp855
S'shoulder_pan_joint'
p856
aF-0.07669903939428206
aa(lp857
S'gripper_grip_joint'
p858
aF-0.010226538585904275
aa(lp859
S'gripper_roll_joint'
p860
aF-0.015339807878856412
aa(lp861
S'shoulder_pitch_joint'
p862
aF1.829374866266415
aa(lp863
S'wrist_roll_joint'
p864
aF-0.05113269292952138
aa(lp865
S'wrist_pitch_joint'
p866
aF-0.0818123086872342
aa(lp867
S'elbow_roll_joint'
p868
aF0.056245962222473515
aa(lp869
S'elbow_pitch_joint'
p870
aF-0.32213596545598466
aa(lp871
S'shoulder_pan_joint'
p872
aF-0.07669903939428206
aa(lp873
S'gripper_grip_joint'
p874
aF-0.010226538585904275
aa(lp875
S'gripper_roll_joint'
p876
aF-0.015339807878856412
aa(lp877
S'elbow_roll_joint'
p878
aF0.056245962222473515
aa(lp879
S'elbow_pitch_joint'
p880
aF-0.32213596545598466
aa(lp881
S'wrist_roll_joint'
p882
aF-0.05113269292952138
aa(lp883
S'wrist_pitch_joint'
p884
aF-0.0818123086872342
aa(lp885
S'shoulder_pitch_joint'
p886
aF1.829374866266415
aa(lp887
S'gripper_roll_joint'
p888
aF-0.015339807878856412
aa(lp889
S'shoulder_pan_joint'
p890
aF-0.07669903939428206
aa(lp891
S'gripper_grip_joint'
p892
aF-0.010226538585904275
aa(lp893
S'elbow_roll_joint'
p894
aF0.056245962222473515
aa(lp895
S'shoulder_pitch_joint'
p896
aF1.829374866266415
aa(lp897
S'wrist_roll_joint'
p898
aF-0.05113269292952138
aa(lp899
S'wrist_pitch_joint'
p900
aF-0.0818123086872342
aa(lp901
S'elbow_pitch_joint'
p902
aF-0.32213596545598466
aa(lp903
S'elbow_pitch_joint'
p904
aF-0.32213596545598466
aa(lp905
S'elbow_roll_joint'
p906
aF0.056245962222473515
aa(lp907
S'shoulder_pitch_joint'
p908
aF1.829374866266415
aa(lp909
S'wrist_roll_joint'
p910
aF-0.05113269292952138
aa(lp911
S'wrist_pitch_joint'
p912
aF-0.0818123086872342
aa(lp913
S'gripper_roll_joint'
p914
aF-0.015339807878856412
aa(lp915
S'shoulder_pan_joint'
p916
aF-0.07669903939428206
aa(lp917
S'gripper_grip_joint'
p918
aF-0.010226538585904275
aa(lp919
S'elbow_roll_joint'
p920
aF0.056245962222473515
aa(lp921
S'gripper_grip_joint'
p922
aF-0.010226538585904275
aa(lp923
S'gripper_roll_joint'
p924
aF-0.010226538585904275
aa(lp925
S'wrist_pitch_joint'
p926
aF-0.0818123086872342
aa(lp927
S'elbow_pitch_joint'
p928
aF-0.32213596545598466
aa(lp929
S'shoulder_pan_joint'
p930
aF-0.07669903939428206
aa(lp931
S'wrist_roll_joint'
p932
aF-0.05113269292952138
aa(lp933
S'shoulder_pitch_joint'
p934
aF1.829374866266415
aa(lp935
S'wrist_pitch_joint'
p936
aF-0.0818123086872342
aa(lp937
S'shoulder_pitch_joint'
p938
aF1.829374866266415
aa(lp939
S'elbow_pitch_joint'
p940
aF-0.32213596545598466
aa(lp941
S'gripper_roll_joint'
p942
aF-0.015339807878856412
aa(lp943
S'wrist_roll_joint'
p944
aF-0.05113269292952138
aa(lp945
S'elbow_roll_joint'
p946
aF0.056245962222473515
aa(lp947
S'shoulder_pan_joint'
p948
aF-0.0818123086872342
aa(lp949
S'gripper_grip_joint'
p950
aF-0.010226538585904275
aa(lp951
S'shoulder_pitch_joint'
p952
aF1.829374866266415
aa(lp953
S'wrist_roll_joint'
p954
aF-0.05113269292952138
aa(lp955
S'elbow_roll_joint'
p956
aF0.056245962222473515
aa(lp957
S'wrist_pitch_joint'
p958
aF-0.0818123086872342
aa(lp959
S'elbow_pitch_joint'
p960
aF-0.32213596545598466
aa(lp961
S'shoulder_pan_joint'
p962
aF-0.07669903939428206
aa(lp963
S'gripper_grip_joint'
p964
aF-0.010226538585904275
aa(lp965
S'gripper_roll_joint'
p966
aF-0.015339807878856412
aa(lp967
S'elbow_pitch_joint'
p968
aF-0.32213596545598466
aa(lp969
S'wrist_roll_joint'
p970
aF-0.05113269292952138
aa(lp971
S'elbow_roll_joint'
p972
aF0.056245962222473515
aa(lp973
S'wrist_pitch_joint'
p974
aF-0.0818123086872342
aa(lp975
S'shoulder_pan_joint'
p976
aF-0.07669903939428206
aa(lp977
S'shoulder_pitch_joint'
p978
aF1.829374866266415
aa(lp979
S'gripper_roll_joint'
p980
aF-0.015339807878856412
aa(lp981
S'gripper_grip_joint'
p982
aF-0.010226538585904275
aa(lp983
S'shoulder_pitch_joint'
p984
aF1.829374866266415
aa(lp985
S'wrist_pitch_joint'
p986
aF-0.0818123086872342
aa(lp987
S'shoulder_pan_joint'
p988
aF-0.07669903939428206
aa(lp989
S'elbow_pitch_joint'
p990
aF-0.32213596545598466
aa(lp991
S'elbow_roll_joint'
p992
aF0.056245962222473515
aa(lp993
S'gripper_grip_joint'
p994
aF-0.010226538585904275
aa(lp995
S'wrist_roll_joint'
p996
aF-0.05113269292952138
aa(lp997
S'gripper_roll_joint'
p998
aF-0.015339807878856412
aa(lp999
S'gripper_roll_joint'
p1000
aF-0.015339807878856412
aa(lp1001
S'wrist_roll_joint'
p1002
aF-0.05113269292952138
aa(lp1003
S'shoulder_pitch_joint'
p1004
aF1.829374866266415
aa(lp1005
S'shoulder_pan_joint'
p1006
aF-0.07669903939428206
aa(lp1007
S'wrist_pitch_joint'
p1008
aF-0.0818123086872342
aa(lp1009
S'elbow_roll_joint'
p1010
aF0.056245962222473515
aa(lp1011
S'elbow_pitch_joint'
p1012
aF-0.32213596545598466
aa(lp1013
S'gripper_grip_joint'
p1014
aF-0.010226538585904275
aa(lp1015
S'shoulder_pan_joint'
p1016
aF-0.07669903939428206
aa(lp1017
S'gripper_grip_joint'
p1018
aF-0.010226538585904275
aa(lp1019
S'wrist_pitch_joint'
p1020
aF-0.0818123086872342
aa(lp1021
S'shoulder_pitch_joint'
p1022
aF1.829374866266415
aa(lp1023
S'elbow_pitch_joint'
p1024
aF-0.32213596545598466
aa(lp1025
S'elbow_roll_joint'
p1026
aF0.056245962222473515
aa(lp1027
S'wrist_roll_joint'
p1028
aF-0.05113269292952138
aa(lp1029
S'gripper_roll_joint'
p1030
aF-0.015339807878856412
aa(lp1031
S'gripper_roll_joint'
p1032
aF-0.015339807878856412
aa(lp1033
S'shoulder_pan_joint'
p1034
aF-0.07669903939428206
aa(lp1035
S'gripper_grip_joint'
p1036
aF-0.010226538585904275
aa(lp1037
S'wrist_pitch_joint'
p1038
aF-0.0818123086872342
aa(lp1039
S'shoulder_pitch_joint'
p1040
aF1.829374866266415
aa(lp1041
S'elbow_pitch_joint'
p1042
aF-0.32213596545598466
aa(lp1043
S'elbow_roll_joint'
p1044
aF0.056245962222473515
aa(lp1045
S'wrist_roll_joint'
p1046
aF-0.05113269292952138
aa(lp1047
S'gripper_roll_joint'
p1048
aF-0.015339807878856412
aa(lp1049
S'shoulder_pan_joint'
p1050
aF-0.07669903939428206
aa(lp1051
S'gripper_grip_joint'
p1052
aF-0.010226538585904275
aa(lp1053
S'elbow_pitch_joint'
p1054
aF-0.32213596545598466
aa(lp1055
S'wrist_roll_joint'
p1056
aF-0.05113269292952138
aa(lp1057
S'shoulder_pitch_joint'
p1058
aF1.829374866266415
aa(lp1059
S'elbow_roll_joint'
p1060
aF0.056245962222473515
aa(lp1061
S'wrist_pitch_joint'
p1062
aF-0.0818123086872342
aa(lp1063
S'gripper_roll_joint'
p1064
aF-0.015339807878856412
aa(lp1065
S'shoulder_pan_joint'
p1066
aF-0.07669903939428206
aa(lp1067
S'gripper_grip_joint'
p1068
aF-0.010226538585904275
aa(lp1069
S'elbow_roll_joint'
p1070
aF0.056245962222473515
aa(lp1071
S'wrist_roll_joint'
p1072
aF-0.05113269292952138
aa(lp1073
S'elbow_pitch_joint'
p1074
aF-0.32213596545598466
aa(lp1075
S'wrist_pitch_joint'
p1076
aF-0.0818123086872342
aa(lp1077
S'shoulder_pitch_joint'
p1078
aF1.829374866266415
aa(lp1079
S'gripper_roll_joint'
p1080
aF-0.015339807878856412
aa(lp1081
S'shoulder_pan_joint'
p1082
aF-0.07669903939428206
aa(lp1083
S'gripper_grip_joint'
p1084
aF-0.010226538585904275
aa(lp1085
S'wrist_pitch_joint'
p1086
aF-0.0818123086872342
aa(lp1087
S'elbow_pitch_joint'
p1088
aF-0.32213596545598466
aa(lp1089
S'elbow_roll_joint'
p1090
aF0.056245962222473515
aa(lp1091
S'wrist_roll_joint'
p1092
aF-0.05113269292952138
aa(lp1093
S'shoulder_pitch_joint'
p1094
aF1.829374866266415
aa(lp1095
S'gripper_roll_joint'
p1096
aF-0.015339807878856412
aa(lp1097
S'gripper_grip_joint'
p1098
aF-0.010226538585904275
aa(lp1099
S'shoulder_pan_joint'
p1100
aF-0.07669903939428206
aa(lp1101
S'wrist_pitch_joint'
p1102
aF-0.0818123086872342
aa(lp1103
S'shoulder_pitch_joint'
p1104
aF1.829374866266415
aa(lp1105
S'elbow_roll_joint'
p1106
aF0.056245962222473515
aa(lp1107
S'elbow_pitch_joint'
p1108
aF-0.32213596545598466
aa(lp1109
S'wrist_roll_joint'
p1110
aF-0.05113269292952138
aa(lp1111
S'elbow_roll_joint'
p1112
aF0.056245962222473515
aa(lp1113
S'elbow_pitch_joint'
p1114
aF-0.32213596545598466
aa(lp1115
S'wrist_pitch_joint'
p1116
aF-0.0818123086872342
aa(lp1117
S'shoulder_pitch_joint'
p1118
aF1.829374866266415
aa(lp1119
S'wrist_roll_joint'
p1120
aF-0.05113269292952138
aa(lp1121
S'shoulder_pan_joint'
p1122
aF-0.07669903939428206
aa(lp1123
S'gripper_grip_joint'
p1124
aF-0.010226538585904275
aa(lp1125
S'gripper_roll_joint'
p1126
aF-0.015339807878856412
aa(lp1127
S'shoulder_pan_joint'
p1128
aF-0.07669903939428206
aa(lp1129
S'gripper_grip_joint'
p1130
aF-0.010226538585904275
aa(lp1131
S'gripper_roll_joint'
p1132
aF-0.015339807878856412
aa(lp1133
S'wrist_pitch_joint'
p1134
aF-0.0818123086872342
aa(lp1135
S'wrist_roll_joint'
p1136
aF-0.05113269292952138
aa(lp1137
S'elbow_roll_joint'
p1138
aF0.056245962222473515
aa(lp1139
S'shoulder_pitch_joint'
p1140
aF1.829374866266415
aa(lp1141
S'elbow_pitch_joint'
p1142
aF-0.32213596545598466
aa(lp1143
S'gripper_roll_joint'
p1144
aF-0.010226538585904275
aa(lp1145
S'shoulder_pan_joint'
p1146
aF-0.07669903939428206
aa(lp1147
S'gripper_grip_joint'
p1148
aF-0.010226538585904275
aa(lp1149
S'shoulder_pitch_joint'
p1150
aF1.829374866266415
aa(lp1151
S'wrist_pitch_joint'
p1152
aF-0.0818123086872342
aa(lp1153
S'elbow_pitch_joint'
p1154
aF-0.32213596545598466
aa(lp1155
S'elbow_roll_joint'
p1156
aF0.056245962222473515
aa(lp1157
S'wrist_roll_joint'
p1158
aF-0.05113269292952138
aa(lp1159
S'shoulder_pan_joint'
p1160
aF-0.07669903939428206
aa(lp1161
S'gripper_grip_joint'
p1162
aF-0.010226538585904275
aa(lp1163
S'gripper_roll_joint'
p1164
aF-0.015339807878856412
aa(lp1165
S'shoulder_pitch_joint'
p1166
aF1.829374866266415
aa(lp1167
S'elbow_roll_joint'
p1168
aF0.056245962222473515
aa(lp1169
S'elbow_pitch_joint'
p1170
aF-0.32213596545598466
aa(lp1171
S'wrist_roll_joint'
p1172
aF-0.05113269292952138
aa(lp1173
S'wrist_pitch_joint'
p1174
aF-0.0818123086872342
aa(lp1175
S'gripper_grip_joint'
p1176
aF-0.010226538585904275
aa(lp1177
S'gripper_roll_joint'
p1178
aF-0.015339807878856412
aa(lp1179
S'shoulder_pan_joint'
p1180
aF-0.07669903939428206
aa(lp1181
S'shoulder_pitch_joint'
p1182
aF1.829374866266415
aa(lp1183
S'wrist_pitch_joint'
p1184
aF-0.0818123086872342
aa(lp1185
S'elbow_pitch_joint'
p1186
aF-0.32213596545598466
aa(lp1187
S'elbow_roll_joint'
p1188
aF0.056245962222473515
aa(lp1189
S'wrist_roll_joint'
p1190
aF-0.05113269292952138
aa(lp1191
S'gripper_roll_joint'
p1192
aF-0.015339807878856412
aa(lp1193
S'shoulder_pan_joint'
p1194
aF-0.07669903939428206
aa(lp1195
S'gripper_grip_joint'
p1196
aF-0.010226538585904275
aa(lp1197
S'elbow_roll_joint'
p1198
aF0.056245962222473515
aa(lp1199
S'elbow_pitch_joint'
p1200
aF-0.32213596545598466
aa(lp1201
S'wrist_roll_joint'
p1202
aF-0.05113269292952138
aa(lp1203
S'shoulder_pitch_joint'
p1204
aF1.829374866266415
aa(lp1205
S'wrist_pitch_joint'
p1206
aF-0.0818123086872342
aa(lp1207
S'gripper_roll_joint'
p1208
aF-0.015339807878856412
aa(lp1209
S'shoulder_pan_joint'
p1210
aF-0.07669903939428206
aa(lp1211
S'gripper_grip_joint'
p1212
aF-0.010226538585904275
aa(lp1213
S'shoulder_pitch_joint'
p1214
aF1.829374866266415
aa(lp1215
S'wrist_pitch_joint'
p1216
aF-0.0818123086872342
aa(lp1217
S'elbow_pitch_joint'
p1218
aF-0.32213596545598466
aa(lp1219
S'elbow_roll_joint'
p1220
aF0.056245962222473515
aa(lp1221
S'wrist_roll_joint'
p1222
aF-0.05113269292952138
aa(lp1223
S'shoulder_pan_joint'
p1224
aF-0.07669903939428206
aa(lp1225
S'gripper_roll_joint'
p1226
aF-0.015339807878856412
aa(lp1227
S'gripper_grip_joint'
p1228
aF-0.010226538585904275
aa(lp1229
S'elbow_roll_joint'
p1230
aF0.056245962222473515
aa(lp1231
S'elbow_pitch_joint'
p1232
aF-0.32213596545598466
aa(lp1233
S'wrist_roll_joint'
p1234
aF-0.05113269292952138
aa(lp1235
S'wrist_pitch_joint'
p1236
aF-0.0818123086872342
aa(lp1237
S'shoulder_pitch_joint'
p1238
aF1.829374866266415
aa(lp1239
S'gripper_roll_joint'
p1240
aF-0.015339807878856412
aa(lp1241
S'gripper_grip_joint'
p1242
aF-0.010226538585904275
aa(lp1243
S'shoulder_pan_joint'
p1244
aF-0.07669903939428206
aa(lp1245
S'elbow_roll_joint'
p1246
aF0.056245962222473515
aa(lp1247
S'elbow_pitch_joint'
p1248
aF-0.32213596545598466
aa(lp1249
S'wrist_roll_joint'
p1250
aF-0.05113269292952138
aa(lp1251
S'wrist_pitch_joint'
p1252
aF-0.0818123086872342
aa(lp1253
S'shoulder_pitch_joint'
p1254
aF1.829374866266415
aa(lp1255
S'gripper_roll_joint'
p1256
aF-0.015339807878856412
aa(lp1257
S'shoulder_pan_joint'
p1258
aF-0.07669903939428206
aa(lp1259
S'gripper_grip_joint'
p1260
aF-0.010226538585904275
aa(lp1261
S'shoulder_pitch_joint'
p1262
aF1.829374866266415
aa(lp1263
S'wrist_pitch_joint'
p1264
aF-0.0818123086872342
aa(lp1265
S'elbow_pitch_joint'
p1266
aF-0.32213596545598466
aa(lp1267
S'elbow_roll_joint'
p1268
aF0.056245962222473515
aa(lp1269
S'wrist_roll_joint'
p1270
aF-0.05113269292952138
aa(lp1271
S'gripper_roll_joint'
p1272
aF-0.015339807878856412
aa(lp1273
S'gripper_grip_joint'
p1274
aF-0.010226538585904275
aa(lp1275
S'shoulder_pan_joint'
p1276
aF-0.07669903939428206
aa(lp1277
S'elbow_roll_joint'
p1278
aF0.056245962222473515
aa(lp1279
S'shoulder_pitch_joint'
p1280
aF1.829374866266415
aa(lp1281
S'wrist_pitch_joint'
p1282
aF-0.0818123086872342
aa(lp1283
S'elbow_pitch_joint'
p1284
aF-0.32213596545598466
aa(lp1285
S'wrist_roll_joint'
p1286
aF-0.05113269292952138
aa(lp1287
S'gripper_grip_joint'
p1288
aF-0.010226538585904275
aa(lp1289
S'shoulder_pan_joint'
p1290
aF-0.07669903939428206
aa(lp1291
S'gripper_roll_joint'
p1292
aF-0.015339807878856412
aa(lp1293
S'elbow_pitch_joint'
p1294
aF-0.32213596545598466
aa(lp1295
S'elbow_roll_joint'
p1296
aF0.056245962222473515
aa(lp1297
S'wrist_roll_joint'
p1298
aF-0.05113269292952138
aa(lp1299
S'wrist_pitch_joint'
p1300
aF-0.0818123086872342
aa(lp1301
S'shoulder_pitch_joint'
p1302
aF1.829374866266415
aa(lp1303
S'gripper_roll_joint'
p1304
aF-0.015339807878856412
aa(lp1305
S'shoulder_pan_joint'
p1306
aF-0.07669903939428206
aa(lp1307
S'gripper_grip_joint'
p1308
aF-0.010226538585904275
aa(lp1309
S'elbow_roll_joint'
p1310
aF0.056245962222473515
aa(lp1311
S'shoulder_pitch_joint'
p1312
aF1.829374866266415
aa(lp1313
S'elbow_pitch_joint'
p1314
aF-0.32213596545598466
aa(lp1315
S'wrist_roll_joint'
p1316
aF-0.05113269292952138
aa(lp1317
S'wrist_pitch_joint'
p1318
aF-0.0818123086872342
aa(lp1319
S'gripper_grip_joint'
p1320
aF-0.010226538585904275
aa(lp1321
S'shoulder_pan_joint'
p1322
aF-0.07669903939428206
aa(lp1323
S'gripper_roll_joint'
p1324
aF-0.015339807878856412
aa(lp1325
S'shoulder_pitch_joint'
p1326
aF1.829374866266415
aa(lp1327
S'elbow_pitch_joint'
p1328
aF-0.32213596545598466
aa(lp1329
S'elbow_roll_joint'
p1330
aF0.056245962222473515
aa(lp1331
S'wrist_roll_joint'
p1332
aF-0.05113269292952138
aa(lp1333
S'wrist_pitch_joint'
p1334
aF-0.0818123086872342
aa(lp1335
S'gripper_grip_joint'
p1336
aF-0.010226538585904275
aa(lp1337
S'shoulder_pan_joint'
p1338
aF-0.07669903939428206
aa(lp1339
S'gripper_roll_joint'
p1340
aF-0.015339807878856412
aa(lp1341
S'shoulder_pitch_joint'
p1342
aF1.829374866266415
aa(lp1343
S'elbow_pitch_joint'
p1344
aF-0.32213596545598466
aa(lp1345
S'elbow_roll_joint'
p1346
aF0.056245962222473515
aa(lp1347
S'wrist_roll_joint'
p1348
aF-0.05113269292952138
aa(lp1349
S'wrist_pitch_joint'
p1350
aF-0.0818123086872342
aa(lp1351
S'gripper_roll_joint'
p1352
aF-0.015339807878856412
aa(lp1353
S'gripper_grip_joint'
p1354
aF-0.010226538585904275
aa(lp1355
S'shoulder_pan_joint'
p1356
aF-0.07669903939428206
aa(lp1357
S'elbow_roll_joint'
p1358
aF0.056245962222473515
aa(lp1359
S'elbow_pitch_joint'
p1360
aF-0.32213596545598466
aa(lp1361
S'wrist_roll_joint'
p1362
aF-0.05113269292952138
aa(lp1363
S'shoulder_pitch_joint'
p1364
aF1.829374866266415
aa(lp1365
S'wrist_pitch_joint'
p1366
aF-0.0818123086872342
aa(lp1367
S'gripper_roll_joint'
p1368
aF-0.015339807878856412
aa(lp1369
S'gripper_grip_joint'
p1370
aF-0.010226538585904275
aa(lp1371
S'shoulder_pan_joint'
p1372
aF-0.07669903939428206
aa(lp1373
S'elbow_pitch_joint'
p1374
aF-0.32213596545598466
aa(lp1375
S'elbow_roll_joint'
p1376
aF0.056245962222473515
aa(lp1377
S'wrist_roll_joint'
p1378
aF-0.05113269292952138
aa(lp1379
S'wrist_pitch_joint'
p1380
aF-0.0818123086872342
aa(lp1381
S'shoulder_pitch_joint'
p1382
aF1.829374866266415
aa(lp1383
S'gripper_grip_joint'
p1384
aF-0.010226538585904275
aa(lp1385
S'shoulder_pan_joint'
p1386
aF-0.07669903939428206
aa(lp1387
S'gripper_roll_joint'
p1388
aF-0.015339807878856412
aa(lp1389
S'shoulder_pitch_joint'
p1390
aF1.829374866266415
aa(lp1391
S'elbow_pitch_joint'
p1392
aF-0.32213596545598466
aa(lp1393
S'elbow_roll_joint'
p1394
aF0.056245962222473515
aa(lp1395
S'wrist_roll_joint'
p1396
aF-0.05113269292952138
aa(lp1397
S'wrist_pitch_joint'
p1398
aF-0.0818123086872342
aa(lp1399
S'gripper_roll_joint'
p1400
aF-0.015339807878856412
aa(lp1401
S'shoulder_pan_joint'
p1402
aF-0.07669903939428206
aa(lp1403
S'gripper_grip_joint'
p1404
aF-0.010226538585904275
aa(lp1405
S'shoulder_pitch_joint'
p1406
aF1.829374866266415
aa(lp1407
S'elbow_pitch_joint'
p1408
aF-0.32213596545598466
aa(lp1409
S'elbow_roll_joint'
p1410
aF0.056245962222473515
aa(lp1411
S'wrist_roll_joint'
p1412
aF-0.05113269292952138
aa(lp1413
S'wrist_pitch_joint'
p1414
aF-0.0818123086872342
aa(lp1415
S'gripper_grip_joint'
p1416
aF-0.010226538585904275
aa(lp1417
S'shoulder_pan_joint'
p1418
aF-0.07669903939428206
aa(lp1419
S'gripper_roll_joint'
p1420
aF-0.015339807878856412
aa(lp1421
S'shoulder_pitch_joint'
p1422
aF1.829374866266415
aa(lp1423
S'elbow_pitch_joint'
p1424
aF-0.32213596545598466
aa(lp1425
S'elbow_roll_joint'
p1426
aF0.056245962222473515
aa(lp1427
S'wrist_roll_joint'
p1428
aF-0.05113269292952138
aa(lp1429
S'wrist_pitch_joint'
p1430
aF-0.0818123086872342
aa(lp1431
S'gripper_grip_joint'
p1432
aF-0.010226538585904275
aa(lp1433
S'gripper_roll_joint'
p1434
aF-0.015339807878856412
aa(lp1435
S'shoulder_pan_joint'
p1436
aF-0.07669903939428206
aa(lp1437
S'elbow_pitch_joint'
p1438
aF-0.32213596545598466
aa(lp1439
S'elbow_roll_joint'
p1440
aF0.056245962222473515
aa(lp1441
S'wrist_roll_joint'
p1442
aF-0.05113269292952138
aa(lp1443
S'shoulder_pitch_joint'
p1444
aF1.829374866266415
aa(lp1445
S'wrist_pitch_joint'
p1446
aF-0.0818123086872342
aa(lp1447
S'gripper_grip_joint'
p1448
aF-0.010226538585904275
aa(lp1449
S'shoulder_pan_joint'
p1450
aF-0.07669903939428206
aa(lp1451
S'gripper_roll_joint'
p1452
aF-0.015339807878856412
aa(lp1453
S'elbow_roll_joint'
p1454
aF0.056245962222473515
aa(lp1455
S'wrist_roll_joint'
p1456
aF-0.05113269292952138
aa(lp1457
S'elbow_pitch_joint'
p1458
aF-0.32213596545598466
aa(lp1459
S'shoulder_pitch_joint'
p1460
aF1.829374866266415
aa(lp1461
S'wrist_pitch_joint'
p1462
aF-0.0818123086872342
aa(lp1463
S'gripper_grip_joint'
p1464
aF-0.010226538585904275
aa(lp1465
S'shoulder_pan_joint'
p1466
aF-0.07669903939428206
aa(lp1467
S'gripper_roll_joint'
p1468
aF-0.015339807878856412
aa(lp1469
S'shoulder_pitch_joint'
p1470
aF1.829374866266415
aa(lp1471
S'elbow_pitch_joint'
p1472
aF-0.32213596545598466
aa(lp1473
S'elbow_roll_joint'
p1474
aF0.056245962222473515
aa(lp1475
S'wrist_roll_joint'
p1476
aF-0.05113269292952138
aa(lp1477
S'wrist_pitch_joint'
p1478
aF-0.0818123086872342
aa(lp1479
S'wrist_roll_joint'
p1480
aF-0.05113269292952138
aa(lp1481
S'shoulder_pitch_joint'
p1482
aF1.829374866266415
aa(lp1483
S'elbow_pitch_joint'
p1484
aF-0.32213596545598466
aa(lp1485
S'gripper_roll_joint'
p1486
aF-0.010226538585904275
aa(lp1487
S'elbow_roll_joint'
p1488
aF0.056245962222473515
aa(lp1489
S'shoulder_pan_joint'
p1490
aF-0.07669903939428206
aa(lp1491
S'gripper_grip_joint'
p1492
aF-0.015339807878856412
aa(lp1493
S'wrist_pitch_joint'
p1494
aF-0.0818123086872342
aa(lp1495
S'elbow_roll_joint'
p1496
aF0.056245962222473515
aa(lp1497
S'shoulder_pitch_joint'
p1498
aF1.829374866266415
aa(lp1499
S'wrist_pitch_joint'
p1500
aF-0.0818123086872342
aa(lp1501
S'elbow_pitch_joint'
p1502
aF-0.32213596545598466
aa(lp1503
S'wrist_roll_joint'
p1504
aF-0.05113269292952138
aa(lp1505
S'shoulder_pan_joint'
p1506
aF-0.07669903939428206
aa(lp1507
S'gripper_roll_joint'
p1508
aF-0.010226538585904275
aa(lp1509
S'gripper_grip_joint'
p1510
aF-0.015339807878856412
aa(lp1511
S'shoulder_pan_joint'
p1512
aF-0.07669903939428206
aa(lp1513
S'gripper_grip_joint'
p1514
aF-0.010226538585904275
aa(lp1515
S'gripper_roll_joint'
p1516
aF-0.010226538585904275
aa(lp1517
S'shoulder_pitch_joint'
p1518
aF1.829374866266415
aa(lp1519
S'elbow_roll_joint'
p1520
aF0.056245962222473515
aa(lp1521
S'wrist_roll_joint'
p1522
aF-0.05113269292952138
aa(lp1523
S'elbow_pitch_joint'
p1524
aF-0.32213596545598466
aa(lp1525
S'wrist_pitch_joint'
p1526
aF-0.0818123086872342
aa(lp1527
S'gripper_roll_joint'
p1528
aF-0.010226538585904275
aa(lp1529
S'gripper_grip_joint'
p1530
aF-0.010226538585904275
aa(lp1531
S'shoulder_pan_joint'
p1532
aF-0.07669903939428206
aa(lp1533
S'elbow_pitch_joint'
p1534
aF-0.32213596545598466
aa(lp1535
S'shoulder_pitch_joint'
p1536
aF1.829374866266415
aa(lp1537
S'elbow_roll_joint'
p1538
aF0.056245962222473515
aa(lp1539
S'wrist_roll_joint'
p1540
aF-0.05113269292952138
aa(lp1541
S'wrist_pitch_joint'
p1542
aF-0.0818123086872342
aa(lp1543
S'gripper_roll_joint'
p1544
aF-0.015339807878856412
aa(lp1545
S'shoulder_pan_joint'
p1546
aF-0.07669903939428206
aa(lp1547
S'gripper_grip_joint'
p1548
aF-0.010226538585904275
aa(lp1549
S'elbow_roll_joint'
p1550
aF0.056245962222473515
aa(lp1551
S'shoulder_pitch_joint'
p1552
aF1.829374866266415
aa(lp1553
S'wrist_roll_joint'
p1554
aF-0.05113269292952138
aa(lp1555
S'wrist_pitch_joint'
p1556
aF-0.0818123086872342
aa(lp1557
S'elbow_pitch_joint'
p1558
aF-0.32213596545598466
aa(lp1559
S'elbow_roll_joint'
p1560
aF0.056245962222473515
aa(lp1561
S'elbow_pitch_joint'
p1562
aF-0.32213596545598466
aa(lp1563
S'wrist_roll_joint'
p1564
aF-0.05113269292952138
aa(lp1565
S'shoulder_pitch_joint'
p1566
aF1.829374866266415
aa(lp1567
S'wrist_pitch_joint'
p1568
aF-0.0818123086872342
aa(lp1569
S'gripper_grip_joint'
p1570
aF-0.015339807878856412
aa(lp1571
S'shoulder_pan_joint'
p1572
aF-0.08692557798018634
aa(lp1573
S'gripper_roll_joint'
p1574
aF-0.015339807878856412
aa(lp1575
S'gripper_roll_joint'
p1576
aF-0.015339807878856412
aa(lp1577
S'gripper_grip_joint'
p1578
aF-0.0051132692929521375
aa(lp1579
S'shoulder_pan_joint'
p1580
aF-0.09203884727313848
aa(lp1581
S'elbow_roll_joint'
p1582
aF0.06135923151542565
aa(lp1583
S'elbow_pitch_joint'
p1584
aF-0.32213596545598466
aa(lp1585
S'wrist_roll_joint'
p1586
aF-0.056245962222473515
aa(lp1587
S'wrist_pitch_joint'
p1588
aF-0.0818123086872342
aa(lp1589
S'shoulder_pitch_joint'
p1590
aF1.829374866266415
aa(lp1591
S'gripper_grip_joint'
p1592
aF-0.0051132692929521375
aa(lp1593
S'gripper_roll_joint'
p1594
aF-0.015339807878856412
aa(lp1595
S'shoulder_pan_joint'
p1596
aF-0.08692557798018634
aa(lp1597
S'elbow_roll_joint'
p1598
aF0.06647250080837779
aa(lp1599
S'wrist_roll_joint'
p1600
aF-0.05113269292952138
aa(lp1601
S'elbow_pitch_joint'
p1602
aF-0.32213596545598466
aa(lp1603
S'shoulder_pitch_joint'
p1604
aF1.829374866266415
aa(lp1605
S'wrist_pitch_joint'
p1606
aF-0.0818123086872342
aa(lp1607
S'gripper_grip_joint'
p1608
aF-0.0051132692929521375
aa(lp1609
S'shoulder_pan_joint'
p1610
aF-0.09715211656609062
aa(lp1611
S'gripper_roll_joint'
p1612
aF-0.010226538585904275
aa(lp1613
S'elbow_roll_joint'
p1614
aF0.07158577010132992
aa(lp1615
S'elbow_pitch_joint'
p1616
aF-0.32213596545598466
aa(lp1617
S'wrist_roll_joint'
p1618
aF-0.05113269292952138
aa(lp1619
S'shoulder_pitch_joint'
p1620
aF1.829374866266415
aa(lp1621
S'wrist_pitch_joint'
p1622
aF-0.08692557798018634
aa(lp1623
S'gripper_grip_joint'
p1624
aF-0.0051132692929521375
aa(lp1625
S'shoulder_pan_joint'
p1626
aF-0.10226538585904275
aa(lp1627
S'gripper_roll_joint'
p1628
aF-0.010226538585904275
aa(lp1629
S'elbow_roll_joint'
p1630
aF0.07669903939428206
aa(lp1631
S'wrist_roll_joint'
p1632
aF-0.05113269292952138
aa(lp1633
S'shoulder_pitch_joint'
p1634
aF1.829374866266415
aa(lp1635
S'wrist_pitch_joint'
p1636
aF-0.08692557798018634
aa(lp1637
S'elbow_pitch_joint'
p1638
aF-0.32213596545598466
aa(lp1639
S'gripper_grip_joint'
p1640
aF-0.0051132692929521375
aa(lp1641
S'gripper_roll_joint'
p1642
aF-0.010226538585904275
aa(lp1643
S'shoulder_pan_joint'
p1644
aF-0.10737865515199489
aa(lp1645
S'elbow_pitch_joint'
p1646
aF-0.32213596545598466
aa(lp1647
S'shoulder_pitch_joint'
p1648
aF1.829374866266415
aa(lp1649
S'wrist_roll_joint'
p1650
aF-0.056245962222473515
aa(lp1651
S'wrist_pitch_joint'
p1652
aF-0.10226538585904275
aa(lp1653
S'elbow_roll_joint'
p1654
aF0.0818123086872342
aa(lp1655
S'gripper_grip_joint'
p1656
aF-0.0051132692929521375
aa(lp1657
S'gripper_roll_joint'
p1658
aF-0.010226538585904275
aa(lp1659
S'shoulder_pan_joint'
p1660
aF-0.11249192444494703
aa(lp1661
S'elbow_pitch_joint'
p1662
aF-0.32213596545598466
aa(lp1663
S'shoulder_pitch_joint'
p1664
aF1.829374866266415
aa(lp1665
S'wrist_roll_joint'
p1666
aF-0.056245962222473515
aa(lp1667
S'wrist_pitch_joint'
p1668
aF-0.1227184630308513
aa(lp1669
S'elbow_roll_joint'
p1670
aF0.09203884727313848
aa(lp1671
S'gripper_roll_joint'
p1672
aF-0.010226538585904275
aa(lp1673
S'gripper_grip_joint'
p1674
aF-0.0051132692929521375
aa(lp1675
S'shoulder_pan_joint'
p1676
aF-0.1227184630308513
aa(lp1677
S'elbow_roll_joint'
p1678
aF0.09715211656609062
aa(lp1679
S'wrist_roll_joint'
p1680
aF-0.05113269292952138
aa(lp1681
S'shoulder_pitch_joint'
p1682
aF1.829374866266415
aa(lp1683
S'wrist_pitch_joint'
p1684
aF-0.14828480949561199
aa(lp1685
S'elbow_pitch_joint'
p1686
aF-0.32213596545598466
aa(lp1687
S'gripper_grip_joint'
p1688
aF-0.0051132692929521375
aa(lp1689
S'gripper_roll_joint'
p1690
aF-0.015339807878856412
aa(lp1691
S'shoulder_pan_joint'
p1692
aF-0.12783173232380343
aa(lp1693
S'elbow_pitch_joint'
p1694
aF-0.32213596545598466
aa(lp1695
S'shoulder_pitch_joint'
p1696
aF1.829374866266415
aa(lp1697
S'wrist_roll_joint'
p1698
aF-0.05113269292952138
aa(lp1699
S'wrist_pitch_joint'
p1700
aF-0.17896442525332482
aa(lp1701
S'elbow_roll_joint'
p1702
aF0.10226538585904275
aa(lp1703
S'gripper_roll_joint'
p1704
aF-0.015339807878856412
aa(lp1705
S'gripper_grip_joint'
p1706
aF-0.0051132692929521375
aa(lp1707
S'shoulder_pan_joint'
p1708
aF-0.1380582709097077
aa(lp1709
S'elbow_roll_joint'
p1710
aF0.11249192444494703
aa(lp1711
S'elbow_pitch_joint'
p1712
aF-0.32213596545598466
aa(lp1713
S'shoulder_pitch_joint'
p1714
aF1.829374866266415
aa(lp1715
S'wrist_roll_joint'
p1716
aF-0.05113269292952138
aa(lp1717
S'wrist_pitch_joint'
p1718
aF-0.21987057959694192
aa(lp1719
S'gripper_roll_joint'
p1720
aF-0.015339807878856412
aa(lp1721
S'gripper_grip_joint'
p1722
aF-0.0051132692929521375
aa(lp1723
S'shoulder_pan_joint'
p1724
aF-0.14828480949561199
aa(lp1725
S'elbow_roll_joint'
p1726
aF0.11760519373789917
aa(lp1727
S'elbow_pitch_joint'
p1728
aF-0.3272492347489368
aa(lp1729
S'wrist_pitch_joint'
p1730
aF-0.2454369260617026
aa(lp1731
S'shoulder_pitch_joint'
p1732
aF1.829374866266415
aa(lp1733
S'wrist_roll_joint'
p1734
aF-0.05113269292952138
aa(lp1735
S'gripper_roll_joint'
p1736
aF-0.015339807878856412
aa(lp1737
S'shoulder_pan_joint'
p1738
aF-0.15851134808151626
aa(lp1739
S'gripper_grip_joint'
p1740
aF-0.0051132692929521375
aa(lp1741
S'elbow_roll_joint'
p1742
aF0.1227184630308513
aa(lp1743
S'wrist_pitch_joint'
p1744
aF-0.3170226961630325
aa(lp1745
S'elbow_pitch_joint'
p1746
aF-0.3272492347489368
aa(lp1747
S'shoulder_pitch_joint'
p1748
aF1.829374866266415
aa(lp1749
S'wrist_roll_joint'
p1750
aF-0.05113269292952138
aa(lp1751
S'gripper_roll_joint'
p1752
aF-0.015339807878856412
aa(lp1753
S'gripper_grip_joint'
p1754
aF-0.0051132692929521375
aa(lp1755
S'shoulder_pan_joint'
p1756
aF-0.17385115596037268
aa(lp1757
S'elbow_pitch_joint'
p1758
aF-0.3272492347489368
aa(lp1759
S'shoulder_pitch_joint'
p1760
aF1.829374866266415
aa(lp1761
S'wrist_roll_joint'
p1762
aF-0.05113269292952138
aa(lp1763
S'wrist_pitch_joint'
p1764
aF-0.3374757733348411
aa(lp1765
S'elbow_roll_joint'
p1766
aF0.13294500161675557
aa(lp1767
S'gripper_grip_joint'
p1768
aF-0.0051132692929521375
aa(lp1769
S'gripper_roll_joint'
p1770
aF-0.015339807878856412
aa(lp1771
S'shoulder_pan_joint'
p1772
aF-0.19430423313218123
aa(lp1773
S'elbow_pitch_joint'
p1774
aF-0.3272492347489368
aa(lp1775
S'shoulder_pitch_joint'
p1776
aF1.829374866266415
aa(lp1777
S'wrist_roll_joint'
p1778
aF-0.05113269292952138
aa(lp1779
S'wrist_pitch_joint'
p1780
aF-0.3783819276784582
aa(lp1781
S'elbow_roll_joint'
p1782
aF0.1380582709097077
aa(lp1783
S'gripper_grip_joint'
p1784
aF-0.0051132692929521375
aa(lp1785
S'shoulder_pan_joint'
p1786
aF-0.20964404101103765
aa(lp1787
S'gripper_roll_joint'
p1788
aF-0.015339807878856412
aa(lp1789
S'elbow_roll_joint'
p1790
aF0.15339807878856412
aa(lp1791
S'shoulder_pitch_joint'
p1792
aF1.829374866266415
aa(lp1793
S'wrist_roll_joint'
p1794
aF-0.05113269292952138
aa(lp1795
S'elbow_pitch_joint'
p1796
aF-0.3272492347489368
aa(lp1797
S'wrist_pitch_joint'
p1798
aF-0.42440135131502743
aa(lp1799
S'gripper_roll_joint'
p1800
aF-0.015339807878856412
aa(lp1801
S'shoulder_pan_joint'
p1802
aF-0.22498384888989406
aa(lp1803
S'gripper_grip_joint'
p1804
aF-0.0051132692929521375
aa(lp1805
S'elbow_roll_joint'
p1806
aF0.16873788666742054
aa(lp1807
S'elbow_pitch_joint'
p1808
aF-0.3272492347489368
aa(lp1809
S'wrist_pitch_joint'
p1810
aF-0.4601942363656924
aa(lp1811
S'shoulder_pitch_joint'
p1812
aF1.829374866266415
aa(lp1813
S'wrist_roll_joint'
p1814
aF-0.0409061543436171
aa(lp1815
S'gripper_grip_joint'
p1816
aF-0.0051132692929521375
aa(lp1817
S'shoulder_pan_joint'
p1818
aF-0.23521038747579834
aa(lp1819
S'gripper_roll_joint'
p1820
aF-0.015339807878856412
aa(lp1821
S'elbow_roll_joint'
p1822
aF0.18407769454627695
aa(lp1823
S'elbow_pitch_joint'
p1824
aF-0.3272492347489368
aa(lp1825
S'wrist_roll_joint'
p1826
aF-0.0409061543436171
aa(lp1827
S'shoulder_pitch_joint'
p1828
aF1.829374866266415
aa(lp1829
S'wrist_pitch_joint'
p1830
aF-0.4959871214163573
aa(lp1831
S'gripper_roll_joint'
p1832
aF-0.02045307717180855
aa(lp1833
S'shoulder_pan_joint'
p1834
aF-0.2505501953546547
aa(lp1835
S'gripper_grip_joint'
p1836
aF-0.0051132692929521375
aa(lp1837
S'elbow_roll_joint'
p1838
aF0.2045307717180855
aa(lp1839
S'elbow_pitch_joint'
p1840
aF-0.3272492347489368
aa(lp1841
S'shoulder_pitch_joint'
p1842
aF1.829374866266415
aa(lp1843
S'wrist_roll_joint'
p1844
aF-0.0409061543436171
aa(lp1845
S'wrist_pitch_joint'
p1846
aF-0.5317800064670223
aa(lp1847
S'gripper_roll_joint'
p1848
aF-0.02045307717180855
aa(lp1849
S'shoulder_pan_joint'
p1850
aF-0.26589000323351114
aa(lp1851
S'gripper_grip_joint'
p1852
aF-0.0051132692929521375
aa(lp1853
S'elbow_roll_joint'
p1854
aF0.22498384888989406
aa(lp1855
S'elbow_pitch_joint'
p1856
aF-0.3272492347489368
aa(lp1857
S'wrist_roll_joint'
p1858
aF-0.0409061543436171
aa(lp1859
S'wrist_pitch_joint'
p1860
aF-0.557346352931783
aa(lp1861
S'shoulder_pitch_joint'
p1862
aF1.829374866266415
aa(lp1863
S'gripper_roll_joint'
p1864
aF-0.02045307717180855
aa(lp1865
S'shoulder_pan_joint'
p1866
aF-0.2710032725264633
aa(lp1867
S'gripper_grip_joint'
p1868
aF-0.0051132692929521375
aa(lp1869
S'elbow_roll_joint'
p1870
aF0.2505501953546547
aa(lp1871
S'elbow_pitch_joint'
p1872
aF-0.3272492347489368
aa(lp1873
S'wrist_roll_joint'
p1874
aF-0.0409061543436171
aa(lp1875
S'wrist_pitch_joint'
p1876
aF-0.5829126993965437
aa(lp1877
S'shoulder_pitch_joint'
p1878
aF1.829374866266415
aa(lp1879
S'gripper_roll_joint'
p1880
aF-0.02045307717180855
aa(lp1881
S'gripper_grip_joint'
p1882
aF-0.0051132692929521375
aa(lp1883
S'shoulder_pan_joint'
p1884
aF-0.2863430804053197
aa(lp1885
S'elbow_roll_joint'
p1886
aF0.26589000323351114
aa(lp1887
S'shoulder_pitch_joint'
p1888
aF1.829374866266415
aa(lp1889
S'wrist_pitch_joint'
p1890
aF-0.6084790458613044
aa(lp1891
S'wrist_roll_joint'
p1892
aF-0.0409061543436171
aa(lp1893
S'elbow_pitch_joint'
p1894
aF-0.33236250404188894
aa(lp1895
S'gripper_roll_joint'
p1896
aF-0.02045307717180855
aa(lp1897
S'gripper_grip_joint'
p1898
aF-0.0051132692929521375
aa(lp1899
S'shoulder_pan_joint'
p1900
aF-0.29145634969827183
aa(lp1901
S'elbow_pitch_joint'
p1902
aF-0.33236250404188894
aa(lp1903
S'shoulder_pitch_joint'
p1904
aF1.829374866266415
aa(lp1905
S'wrist_pitch_joint'
p1906
aF-0.634045392326065
aa(lp1907
S'wrist_roll_joint'
p1908
aF-0.05113269292952138
aa(lp1909
S'elbow_roll_joint'
p1910
aF0.29145634969827183
aa(lp1911
S'gripper_roll_joint'
p1912
aF-0.02045307717180855
aa(lp1913
S'shoulder_pan_joint'
p1914
aF-0.3016828882841761
aa(lp1915
S'gripper_grip_joint'
p1916
aF-0.0051132692929521375
aa(lp1917
S'elbow_roll_joint'
p1918
aF0.29656961899122397
aa(lp1919
S'shoulder_pitch_joint'
p1920
aF1.829374866266415
aa(lp1921
S'wrist_pitch_joint'
p1922
aF-0.6647250080837779
aa(lp1923
S'elbow_pitch_joint'
p1924
aF-0.3374757733348411
aa(lp1925
S'wrist_roll_joint'
p1926
aF-0.05113269292952138
aa(lp1927
S'gripper_roll_joint'
p1928
aF-0.02045307717180855
aa(lp1929
S'shoulder_pan_joint'
p1930
aF-0.3170226961630325
aa(lp1931
S'gripper_grip_joint'
p1932
aF-0.0051132692929521375
aa(lp1933
S'elbow_roll_joint'
p1934
aF0.3119094268700804
aa(lp1935
S'elbow_pitch_joint'
p1936
aF-0.3374757733348411
aa(lp1937
S'shoulder_pitch_joint'
p1938
aF1.829374866266415
aa(lp1939
S'wrist_pitch_joint'
p1940
aF-0.6851780852555864
aa(lp1941
S'wrist_roll_joint'
p1942
aF-0.05113269292952138
aa(lp1943
S'gripper_roll_joint'
p1944
aF-0.02045307717180855
aa(lp1945
S'shoulder_pan_joint'
p1946
aF-0.32213596545598466
aa(lp1947
S'gripper_grip_joint'
p1948
aF-0.0051132692929521375
aa(lp1949
S'elbow_roll_joint'
p1950
aF0.3170226961630325
aa(lp1951
S'elbow_pitch_joint'
p1952
aF-0.3374757733348411
aa(lp1953
S'wrist_roll_joint'
p1954
aF-0.0409061543436171
aa(lp1955
S'wrist_pitch_joint'
p1956
aF-0.7005178931344428
aa(lp1957
S'shoulder_pitch_joint'
p1958
aF1.829374866266415
aa(lp1959
S'gripper_roll_joint'
p1960
aF-0.02045307717180855
aa(lp1961
S'shoulder_pan_joint'
p1962
aF-0.33236250404188894
aa(lp1963
S'gripper_grip_joint'
p1964
aF-0.0051132692929521375
aa(lp1965
S'elbow_roll_joint'
p1966
aF0.32213596545598466
aa(lp1967
S'shoulder_pitch_joint'
p1968
aF1.829374866266415
aa(lp1969
S'wrist_roll_joint'
p1970
aF-0.05113269292952138
aa(lp1971
S'wrist_pitch_joint'
p1972
aF-0.7209709703062513
aa(lp1973
S'elbow_pitch_joint'
p1974
aF-0.3425890426277932
aa(lp1975
S'gripper_roll_joint'
p1976
aF-0.02045307717180855
aa(lp1977
S'gripper_grip_joint'
p1978
aF-0.0051132692929521375
aa(lp1979
S'shoulder_pan_joint'
p1980
aF-0.3425890426277932
aa(lp1981
S'elbow_roll_joint'
p1982
aF0.3272492347489368
aa(lp1983
S'elbow_pitch_joint'
p1984
aF-0.34770231192074535
aa(lp1985
S'wrist_roll_joint'
p1986
aF-0.05113269292952138
aa(lp1987
S'wrist_pitch_joint'
p1988
aF-0.7363107781851078
aa(lp1989
S'shoulder_pitch_joint'
p1990
aF1.829374866266415
aa(lp1991
S'gripper_roll_joint'
p1992
aF-0.02045307717180855
aa(lp1993
S'gripper_grip_joint'
p1994
aF-0.0051132692929521375
aa(lp1995
S'shoulder_pan_joint'
p1996
aF-0.3528155812136975
aa(lp1997
S'elbow_roll_joint'
p1998
aF0.3272492347489368
aa(lp1999
S'wrist_pitch_joint'
p2000
aF-0.7516505860639642
aa(lp2001
S'shoulder_pitch_joint'
p2002
aF1.829374866266415
aa(lp2003
S'wrist_roll_joint'
p2004
aF-0.05113269292952138
aa(lp2005
S'elbow_pitch_joint'
p2006
aF-0.35792885050664963
aa(lp2007
S'gripper_roll_joint'
p2008
aF-0.02045307717180855
aa(lp2009
S'shoulder_pan_joint'
p2010
aF-0.35792885050664963
aa(lp2011
S'gripper_grip_joint'
p2012
aF-0.0051132692929521375
aa(lp2013
S'elbow_roll_joint'
p2014
aF0.3272492347489368
aa(lp2015
S'shoulder_pitch_joint'
p2016
aF1.829374866266415
aa(lp2017
S'elbow_pitch_joint'
p2018
aF-0.3681553890925539
aa(lp2019
S'wrist_roll_joint'
p2020
aF-0.05113269292952138
aa(lp2021
S'wrist_pitch_joint'
p2022
aF-0.7669903939428206
aa(lp2023
S'gripper_roll_joint'
p2024
aF-0.02556634646476069
aa(lp2025
S'shoulder_pan_joint'
p2026
aF-0.3681553890925539
aa(lp2027
S'gripper_grip_joint'
p2028
aF-0.0051132692929521375
aa(lp2029
S'elbow_roll_joint'
p2030
aF0.3272492347489368
aa(lp2031
S'shoulder_pitch_joint'
p2032
aF1.829374866266415
aa(lp2033
S'wrist_pitch_joint'
p2034
aF-0.7772169325287249
aa(lp2035
S'wrist_roll_joint'
p2036
aF-0.056245962222473515
aa(lp2037
S'elbow_pitch_joint'
p2038
aF-0.3783819276784582
aa(lp2039
S'gripper_roll_joint'
p2040
aF-0.02045307717180855
aa(lp2041
S'shoulder_pan_joint'
p2042
aF-0.3783819276784582
aa(lp2043
S'gripper_grip_joint'
p2044
aF-0.0051132692929521375
aa(lp2045
S'wrist_roll_joint'
p2046
aF-0.06135923151542565
aa(lp2047
S'wrist_pitch_joint'
p2048
aF-0.782330201821677
aa(lp2049
S'shoulder_pitch_joint'
p2050
aF1.829374866266415
aa(lp2051
S'elbow_pitch_joint'
p2052
aF-0.38860846626436246
aa(lp2053
S'elbow_roll_joint'
p2054
aF0.3272492347489368
aa(lp2055
S'gripper_grip_joint'
p2056
aF-0.0051132692929521375
aa(lp2057
S'shoulder_pan_joint'
p2058
aF-0.3834951969714103
aa(lp2059
S'gripper_roll_joint'
p2060
aF-0.02045307717180855
aa(lp2061
S'wrist_roll_joint'
p2062
aF-0.07669903939428206
aa(lp2063
S'shoulder_pitch_joint'
p2064
aF1.829374866266415
aa(lp2065
S'elbow_pitch_joint'
p2066
aF-0.4039482741432189
aa(lp2067
S'wrist_pitch_joint'
p2068
aF-0.7874434711146292
aa(lp2069
S'elbow_roll_joint'
p2070
aF0.32213596545598466
aa(lp2071
S'gripper_roll_joint'
p2072
aF-0.02045307717180855
aa(lp2073
S'shoulder_pan_joint'
p2074
aF-0.3834951969714103
aa(lp2075
S'gripper_grip_joint'
p2076
aF-0.0051132692929521375
aa(lp2077
S'elbow_pitch_joint'
p2078
aF-0.42440135131502743
aa(lp2079
S'wrist_roll_joint'
p2080
aF-0.09203884727313848
aa(lp2081
S'wrist_pitch_joint'
p2082
aF-0.7976700097005335
aa(lp2083
S'shoulder_pitch_joint'
p2084
aF1.829374866266415
aa(lp2085
S'elbow_roll_joint'
p2086
aF0.32213596545598466
aa(lp2087
S'gripper_roll_joint'
p2088
aF-0.02045307717180855
aa(lp2089
S'shoulder_pan_joint'
p2090
aF-0.38860846626436246
aa(lp2091
S'gripper_grip_joint'
p2092
aF-0.0051132692929521375
aa(lp2093
S'elbow_roll_joint'
p2094
aF0.32213596545598466
aa(lp2095
S'shoulder_pitch_joint'
p2096
aF1.829374866266415
aa(lp2097
S'wrist_roll_joint'
p2098
aF-0.11249192444494703
aa(lp2099
S'elbow_pitch_joint'
p2100
aF-0.444854428486836
aa(lp2101
S'wrist_pitch_joint'
p2102
aF-0.8027832789934856
aa(lp2103
S'gripper_grip_joint'
p2104
aF-0.0051132692929521375
aa(lp2105
S'gripper_roll_joint'
p2106
aF-0.02045307717180855
aa(lp2107
S'shoulder_pan_joint'
p2108
aF-0.3937217355573146
aa(lp2109
S'shoulder_pitch_joint'
p2110
aF1.829374866266415
aa(lp2111
S'wrist_roll_joint'
p2112
aF-0.1380582709097077
aa(lp2113
S'elbow_pitch_joint'
p2114
aF-0.4704207749515967
aa(lp2115
S'wrist_pitch_joint'
p2116
aF-0.8027832789934856
aa(lp2117
S'elbow_roll_joint'
p2118
aF0.32213596545598466
aa(lp2119
S'shoulder_pan_joint'
p2120
aF-0.3937217355573146
aa(lp2121
S'gripper_roll_joint'
p2122
aF-0.02045307717180855
aa(lp2123
S'gripper_grip_joint'
p2124
aF-0.0051132692929521375
aa(lp2125
S'shoulder_pitch_joint'
p2126
aF1.829374866266415
aa(lp2127
S'elbow_pitch_joint'
p2128
aF-0.4959871214163573
aa(lp2129
S'wrist_roll_joint'
p2130
aF-0.15851134808151626
aa(lp2131
S'elbow_roll_joint'
p2132
aF0.32213596545598466
aa(lp2133
S'wrist_pitch_joint'
p2134
aF-0.7976700097005335
aa(lp2135
S'gripper_roll_joint'
p2136
aF-0.015339807878856412
aa(lp2137
S'shoulder_pan_joint'
p2138
aF-0.3937217355573146
aa(lp2139
S'gripper_grip_joint'
p2140
aF-0.0051132692929521375
aa(lp2141
S'elbow_roll_joint'
p2142
aF0.32213596545598466
aa(lp2143
S'shoulder_pitch_joint'
p2144
aF1.829374866266415
aa(lp2145
S'wrist_roll_joint'
p2146
aF-0.18407769454627695
aa(lp2147
S'elbow_pitch_joint'
p2148
aF-0.5266667371740702
aa(lp2149
S'wrist_pitch_joint'
p2150
aF-0.7976700097005335
aa(lp2151
S'shoulder_pan_joint'
p2152
aF-0.39883500485026674
aa(lp2153
S'gripper_roll_joint'
p2154
aF-0.015339807878856412
aa(lp2155
S'gripper_grip_joint'
p2156
aF-0.0051132692929521375
aa(lp2157
S'elbow_roll_joint'
p2158
aF0.32213596545598466
aa(lp2159
S'shoulder_pitch_joint'
p2160
aF1.829374866266415
aa(lp2161
S'wrist_pitch_joint'
p2162
aF-0.7874434711146292
aa(lp2163
S'wrist_roll_joint'
p2164
aF-0.2045307717180855
aa(lp2165
S'elbow_pitch_joint'
p2166
aF-0.5624596222247351
aa(lp2167
S'gripper_roll_joint'
p2168
aF-0.015339807878856412
aa(lp2169
S'gripper_grip_joint'
p2170
aF-0.0051132692929521375
aa(lp2171
S'shoulder_pan_joint'
p2172
aF-0.39883500485026674
aa(lp2173
S'shoulder_pitch_joint'
p2174
aF1.829374866266415
aa(lp2175
S'wrist_roll_joint'
p2176
aF-0.22498384888989406
aa(lp2177
S'elbow_pitch_joint'
p2178
aF-0.5880259686894959
aa(lp2179
S'wrist_pitch_joint'
p2180
aF-0.7772169325287249
aa(lp2181
S'elbow_roll_joint'
p2182
aF0.32213596545598466
aa(lp2183
S'gripper_grip_joint'
p2184
aF-0.0051132692929521375
aa(lp2185
S'shoulder_pan_joint'
p2186
aF-0.39883500485026674
aa(lp2187
S'gripper_roll_joint'
p2188
aF-0.015339807878856412
aa(lp2189
S'wrist_roll_joint'
p2190
aF-0.2454369260617026
aa(lp2191
S'elbow_pitch_joint'
p2192
aF-0.6238188537401608
aa(lp2193
S'wrist_pitch_joint'
p2194
aF-0.7618771246498685
aa(lp2195
S'elbow_roll_joint'
p2196
aF0.32213596545598466
aa(lp2197
S'shoulder_pitch_joint'
p2198
aF1.829374866266415
aa(lp2199
S'shoulder_pan_joint'
p2200
aF-0.39883500485026674
aa(lp2201
S'gripper_roll_joint'
p2202
aF-0.015339807878856412
aa(lp2203
S'gripper_grip_joint'
p2204
aF-0.0051132692929521375
aa(lp2205
S'shoulder_pitch_joint'
p2206
aF1.829374866266415
aa(lp2207
S'wrist_roll_joint'
p2208
aF-0.26589000323351114
aa(lp2209
S'elbow_pitch_joint'
p2210
aF-0.6596117387908257
aa(lp2211
S'wrist_pitch_joint'
p2212
aF-0.7363107781851078
aa(lp2213
S'elbow_roll_joint'
p2214
aF0.32213596545598466
aa(lp2215
S'gripper_roll_joint'
p2216
aF-0.015339807878856412
aa(lp2217
S'gripper_grip_joint'
p2218
aF-0.0051132692929521375
aa(lp2219
S'shoulder_pan_joint'
p2220
aF-0.39883500485026674
aa(lp2221
S'shoulder_pitch_joint'
p2222
aF1.829374866266415
aa(lp2223
S'elbow_pitch_joint'
p2224
aF-0.6902913545485385
aa(lp2225
S'wrist_pitch_joint'
p2226
aF-0.7209709703062513
aa(lp2227
S'wrist_roll_joint'
p2228
aF-0.28122981111236756
aa(lp2229
S'elbow_roll_joint'
p2230
aF0.32213596545598466
aa(lp2231
S'gripper_roll_joint'
p2232
aF-0.010226538585904275
aa(lp2233
S'shoulder_pan_joint'
p2234
aF-0.39883500485026674
aa(lp2235
S'gripper_grip_joint'
p2236
aF-0.0051132692929521375
aa(lp2237
S'elbow_roll_joint'
p2238
aF0.3170226961630325
aa(lp2239
S'elbow_pitch_joint'
p2240
aF-0.7209709703062513
aa(lp2241
S'shoulder_pitch_joint'
p2242
aF1.829374866266415
aa(lp2243
S'wrist_roll_joint'
p2244
aF-0.3016828882841761
aa(lp2245
S'wrist_pitch_joint'
p2246
aF-0.7005178931344428
aa(lp2247
S'gripper_roll_joint'
p2248
aF-0.0051132692929521375
aa(lp2249
S'shoulder_pan_joint'
p2250
aF-0.3937217355573146
aa(lp2251
S'gripper_grip_joint'
p2252
aF-0.0051132692929521375
aa(lp2253
S'elbow_roll_joint'
p2254
aF0.3170226961630325
aa(lp2255
S'elbow_pitch_joint'
p2256
aF-0.7567638553569164
aa(lp2257
S'wrist_roll_joint'
p2258
aF-0.3119094268700804
aa(lp2259
S'wrist_pitch_joint'
p2260
aF-0.66983827737673
aa(lp2261
S'shoulder_pitch_joint'
p2262
aF1.829374866266415
aa(lp2263
S'shoulder_pan_joint'
p2264
aF-0.3937217355573146
aa(lp2265
S'gripper_grip_joint'
p2266
aF-0.0051132692929521375
aa(lp2267
S'gripper_roll_joint'
p2268
aF-0.0051132692929521375
aa(lp2269
S'elbow_roll_joint'
p2270
aF0.3119094268700804
aa(lp2271
S'wrist_pitch_joint'
p2272
aF-0.6442719309119693
aa(lp2273
S'wrist_roll_joint'
p2274
aF-0.3170226961630325
aa(lp2275
S'shoulder_pitch_joint'
p2276
aF1.829374866266415
aa(lp2277
S'elbow_pitch_joint'
p2278
aF-0.7925567404075813
aa(lp2279
S'gripper_roll_joint'
p2280
aF-0.0051132692929521375
aa(lp2281
S'gripper_grip_joint'
p2282
aF-0.0051132692929521375
aa(lp2283
S'shoulder_pan_joint'
p2284
aF-0.38860846626436246
aa(lp2285
S'shoulder_pitch_joint'
p2286
aF1.829374866266415
aa(lp2287
S'wrist_roll_joint'
p2288
aF-0.3170226961630325
aa(lp2289
S'wrist_pitch_joint'
p2290
aF-0.6084790458613044
aa(lp2291
S'elbow_roll_joint'
p2292
aF0.30679615757712825
aa(lp2293
S'elbow_pitch_joint'
p2294
aF-0.8283496254582463
aa(lp2295
S'gripper_roll_joint'
p2296
aF-0.010226538585904275
aa(lp2297
S'gripper_grip_joint'
p2298
aF-0.0051132692929521375
aa(lp2299
S'shoulder_pan_joint'
p2300
aF-0.38860846626436246
aa(lp2301
S'wrist_roll_joint'
p2302
aF-0.3170226961630325
aa(lp2303
S'shoulder_pitch_joint'
p2304
aF1.829374866266415
aa(lp2305
S'wrist_pitch_joint'
p2306
aF-0.5675728915176873
aa(lp2307
S'elbow_roll_joint'
p2308
aF0.3016828882841761
aa(lp2309
S'elbow_pitch_joint'
p2310
aF-0.8590292412159591
aa(lp2311
S'gripper_roll_joint'
p2312
aF-0.0051132692929521375
aa(lp2313
S'gripper_grip_joint'
p2314
aF-0.0051132692929521375
aa(lp2315
S'shoulder_pan_joint'
p2316
aF-0.3834951969714103
aa(lp2317
S'elbow_roll_joint'
p2318
aF0.29145634969827183
aa(lp2319
S'shoulder_pitch_joint'
p2320
aF1.829374866266415
aa(lp2321
S'wrist_roll_joint'
p2322
aF-0.3170226961630325
aa(lp2323
S'elbow_pitch_joint'
p2324
aF-0.894822126266624
aa(lp2325
S'wrist_pitch_joint'
p2326
aF-0.5317800064670223
aa(lp2327
S'shoulder_pan_joint'
p2328
aF-0.3834951969714103
aa(lp2329
S'gripper_grip_joint'
p2330
aF-0.0051132692929521375
aa(lp2331
S'gripper_roll_joint'
p2332
aF-0.0051132692929521375
aa(lp2333
S'wrist_roll_joint'
p2334
aF-0.3170226961630325
aa(lp2335
S'elbow_pitch_joint'
p2336
aF-0.9255017420243369
aa(lp2337
S'shoulder_pitch_joint'
p2338
aF1.829374866266415
aa(lp2339
S'wrist_pitch_joint'
p2340
aF-0.4959871214163573
aa(lp2341
S'elbow_roll_joint'
p2342
aF0.2863430804053197
aa(lp2343
S'gripper_roll_joint'
p2344
aF-0.0051132692929521375
aa(lp2345
S'gripper_grip_joint'
p2346
aF-0.0051132692929521375
aa(lp2347
S'shoulder_pan_joint'
p2348
aF-0.3834951969714103
aa(lp2349
S'elbow_pitch_joint'
p2350
aF-0.966407896367954
aa(lp2351
S'wrist_pitch_joint'
p2352
aF-0.4499676977797881
aa(lp2353
S'shoulder_pitch_joint'
p2354
aF1.829374866266415
aa(lp2355
S'elbow_roll_joint'
p2356
aF0.2761165418194154
aa(lp2357
S'wrist_roll_joint'
p2358
aF-0.3170226961630325
aa(lp2359
S'shoulder_pan_joint'
p2360
aF-0.3834951969714103
aa(lp2361
S'gripper_grip_joint'
p2362
aF-0.0051132692929521375
aa(lp2363
S'gripper_roll_joint'
p2364
aF-0.0051132692929521375
aa(lp2365
S'elbow_roll_joint'
p2366
aF0.26589000323351114
aa(lp2367
S'shoulder_pitch_joint'
p2368
aF1.829374866266415
aa(lp2369
S'wrist_pitch_joint'
p2370
aF-0.409061543436171
aa(lp2371
S'wrist_roll_joint'
p2372
aF-0.3170226961630325
aa(lp2373
S'elbow_pitch_joint'
p2374
aF-0.9970875121256668
aa(lp2375
S'gripper_grip_joint'
p2376
aF-0.0051132692929521375
aa(lp2377
S'gripper_roll_joint'
p2378
aF-0.0051132692929521375
aa(lp2379
S'shoulder_pan_joint'
p2380
aF-0.3783819276784582
aa(lp2381
S'shoulder_pitch_joint'
p2382
aF1.829374866266415
aa(lp2383
S'wrist_roll_joint'
p2384
aF-0.3170226961630325
aa(lp2385
S'elbow_pitch_joint'
p2386
aF-1.0226538585904275
aa(lp2387
S'wrist_pitch_joint'
p2388
aF-0.36304211979960177
aa(lp2389
S'elbow_roll_joint'
p2390
aF0.2505501953546547
aa(lp2391
S'gripper_roll_joint'
p2392
aF-0.0051132692929521375
aa(lp2393
S'gripper_grip_joint'
p2394
aF-0.0051132692929521375
aa(lp2395
S'shoulder_pan_joint'
p2396
aF-0.3783819276784582
aa(lp2397
S'elbow_roll_joint'
p2398
aF0.23521038747579834
aa(lp2399
S'shoulder_pitch_joint'
p2400
aF1.8261673124389464
aa(lp2401
S'wrist_roll_joint'
p2402
aF-0.3170226961630325
aa(lp2403
S'elbow_pitch_joint'
p2404
aF-1.043106935762236
aa(lp2405
S'wrist_pitch_joint'
p2406
aF-0.3170226961630325
aa(lp2407
S'gripper_roll_joint'
p2408
aF-0.0051132692929521375
aa(lp2409
S'gripper_grip_joint'
p2410
aF-0.0051132692929521375
aa(lp2411
S'shoulder_pan_joint'
p2412
aF-0.3783819276784582
aa(lp2413
S'elbow_roll_joint'
p2414
aF0.21987057959694192
aa(lp2415
S'elbow_pitch_joint'
p2416
aF-1.073786551519949
aa(lp2417
S'wrist_roll_joint'
p2418
aF-0.3119094268700804
aa(lp2419
S'wrist_pitch_joint'
p2420
aF-0.2761165418194154
aa(lp2421
S'shoulder_pitch_joint'
p2422
aF1.8208213893931648
aa(lp2423
S'shoulder_pan_joint'
p2424
aF-0.3783819276784582
aa(lp2425
S'gripper_roll_joint'
p2426
aF-0.0051132692929521375
aa(lp2427
S'gripper_grip_joint'
p2428
aF-0.0051132692929521375
aa(lp2429
S'elbow_roll_joint'
p2430
aF0.20964404101103765
aa(lp2431
S'wrist_roll_joint'
p2432
aF-0.30679615757712825
aa(lp2433
S'shoulder_pitch_joint'
p2434
aF1.8133370971290708
aa(lp2435
S'wrist_pitch_joint'
p2436
aF-0.23521038747579834
aa(lp2437
S'elbow_pitch_joint'
p2438
aF-1.0993528979847096
aa(lp2439
S'gripper_roll_joint'
p2440
aF-0.0051132692929521375
aa(lp2441
S'shoulder_pan_joint'
p2442
aF-0.3783819276784582
aa(lp2443
S'gripper_grip_joint'
p2444
aF-0.0051132692929521375
aa(lp2445
S'elbow_roll_joint'
p2446
aF0.19941750242513337
aa(lp2447
S'elbow_pitch_joint'
p2448
aF-1.1198059751565181
aa(lp2449
S'shoulder_pitch_joint'
p2450
aF1.8047836202558205
aa(lp2451
S'wrist_roll_joint'
p2452
aF-0.2863430804053197
aa(lp2453
S'wrist_pitch_joint'
p2454
aF-0.19941750242513337
aa(lp2455
S'gripper_roll_joint'
p2456
aF-0.0051132692929521375
aa(lp2457
S'shoulder_pan_joint'
p2458
aF-0.3783819276784582
aa(lp2459
S'gripper_grip_joint'
p2460
aF-0.0051132692929521375
aa(lp2461
S'elbow_pitch_joint'
p2462
aF-1.1402590523283267
aa(lp2463
S'shoulder_pitch_joint'
p2464
aF1.7951609587734139
aa(lp2465
S'wrist_roll_joint'
p2466
aF-0.2710032725264633
aa(lp2467
S'wrist_pitch_joint'
p2468
aF-0.15851134808151626
aa(lp2469
S'elbow_roll_joint'
p2470
aF0.1891909638392291
aa(lp2471
S'elbow_pitch_joint'
p2472
aF-1.1555988602071832
aa(lp2473
S'shoulder_pitch_joint'
p2474
aF1.7855382972910072
aa(lp2475
S'wrist_roll_joint'
p2476
aF-0.2505501953546547
aa(lp2477
S'wrist_pitch_joint'
p2478
aF-0.1227184630308513
aa(lp2479
S'elbow_roll_joint'
p2480
aF0.17385115596037268
aa(lp2481
S'gripper_roll_joint'
p2482
aF-0.0051132692929521375
aa(lp2483
S'shoulder_pan_joint'
p2484
aF-0.3783819276784582
aa(lp2485
S'gripper_grip_joint'
p2486
aF-0.0051132692929521375
aa(lp2487
S'gripper_roll_joint'
p2488
aF-0.0051132692929521375
aa(lp2489
S'gripper_grip_joint'
p2490
aF-0.0051132692929521375
aa(lp2491
S'shoulder_pan_joint'
p2492
aF-0.3783819276784582
aa(lp2493
S'elbow_roll_joint'
p2494
aF0.16873788666742054
aa(lp2495
S'elbow_pitch_joint'
p2496
aF-1.1658253987930873
aa(lp2497
S'wrist_pitch_joint'
p2498
aF-0.08692557798018634
aa(lp2499
S'wrist_roll_joint'
p2500
aF-0.22498384888989406
aa(lp2501
S'shoulder_pitch_joint'
p2502
aF1.7759156358086006
aa(lp2503
S'gripper_roll_joint'
p2504
aF-0.0051132692929521375
aa(lp2505
S'shoulder_pan_joint'
p2506
aF-0.3783819276784582
aa(lp2507
S'gripper_grip_joint'
p2508
aF-0.0051132692929521375
aa(lp2509
S'wrist_roll_joint'
p2510
aF-0.19941750242513337
aa(lp2511
S'elbow_roll_joint'
p2512
aF0.15851134808151626
aa(lp2513
S'wrist_pitch_joint'
p2514
aF-0.06647250080837779
aa(lp2515
S'elbow_pitch_joint'
p2516
aF-1.1709386680860394
aa(lp2517
S'shoulder_pitch_joint'
p2518
aF1.7641546051078814
aa(lp2519
S'gripper_roll_joint'
p2520
aF-0.0051132692929521375
aa(lp2521
S'gripper_grip_joint'
p2522
aF-0.0051132692929521375
aa(lp2523
S'shoulder_pan_joint'
p2524
aF-0.3783819276784582
aa(lp2525
S'wrist_roll_joint'
p2526
aF-0.17385115596037268
aa(lp2527
S'shoulder_pitch_joint'
p2528
aF1.751324389798006
aa(lp2529
S'elbow_pitch_joint'
p2530
aF-1.1811652066719438
aa(lp2531
S'wrist_pitch_joint'
p2532
aF-0.05113269292952138
aa(lp2533
S'elbow_roll_joint'
p2534
aF0.15339807878856412
aa(lp2535
S'elbow_pitch_joint'
p2536
aF-1.1811652066719438
aa(lp2537
S'wrist_roll_joint'
p2538
aF-0.14828480949561199
aa(lp2539
S'wrist_pitch_joint'
p2540
aF-0.04601942363656924
aa(lp2541
S'elbow_roll_joint'
p2542
aF0.14828480949561199
aa(lp2543
S'shoulder_pan_joint'
p2544
aF-0.3783819276784582
aa(lp2545
S'gripper_grip_joint'
p2546
aF-0.0051132692929521375
aa(lp2547
S'gripper_roll_joint'
p2548
aF-0.0051132692929521375
aa(lp2549
S'shoulder_pitch_joint'
p2550
aF1.7384941744881304
aa(lp2551
S'gripper_roll_joint'
p2552
aF-0.0051132692929521375
aa(lp2553
S'shoulder_pan_joint'
p2554
aF-0.3783819276784582
aa(lp2555
S'gripper_grip_joint'
p2556
aF-0.0051132692929521375
aa(lp2557
S'shoulder_pitch_joint'
p2558
aF1.7245947745690986
aa(lp2559
S'wrist_pitch_joint'
p2560
aF-0.030679615757712823
aa(lp2561
S'elbow_roll_joint'
p2562
aF0.1380582709097077
aa(lp2563
S'elbow_pitch_joint'
p2564
aF-1.1709386680860394
aa(lp2565
S'wrist_roll_joint'
p2566
aF-0.11760519373789917
aa(lp2567
S'gripper_grip_joint'
p2568
aF-0.0051132692929521375
aa(lp2569
S'shoulder_pan_joint'
p2570
aF-0.3783819276784582
aa(lp2571
S'gripper_roll_joint'
p2572
aF-0.0051132692929521375
aa(lp2573
S'wrist_pitch_joint'
p2574
aF-0.02556634646476069
aa(lp2575
S'shoulder_pitch_joint'
p2576
aF1.7128337438683794
aa(lp2577
S'wrist_roll_joint'
p2578
aF-0.09203884727313848
aa(lp2579
S'elbow_pitch_joint'
p2580
aF-1.1709386680860394
aa(lp2581
S'elbow_roll_joint'
p2582
aF0.13294500161675557
aa(lp2583
S'shoulder_pan_joint'
p2584
aF-0.3783819276784582
aa(lp2585
S'gripper_grip_joint'
p2586
aF-0.0051132692929521375
aa(lp2587
S'gripper_roll_joint'
p2588
aF-0.0051132692929521375
aa(lp2589
S'elbow_pitch_joint'
p2590
aF-1.1607121295001352
aa(lp2591
S'wrist_pitch_joint'
p2592
aF-0.02045307717180855
aa(lp2593
S'shoulder_pitch_joint'
p2594
aF1.7021418977768166
aa(lp2595
S'elbow_roll_joint'
p2596
aF0.1227184630308513
aa(lp2597
S'wrist_roll_joint'
p2598
aF-0.06135923151542565
aa(lp2599
S'gripper_roll_joint'
p2600
aF-0.0051132692929521375
aa(lp2601
S'gripper_grip_joint'
p2602
aF-0.0051132692929521375
aa(lp2603
S'shoulder_pan_joint'
p2604
aF-0.37326865838550605
aa(lp2605
S'elbow_pitch_joint'
p2606
aF-1.1555988602071832
aa(lp2607
S'wrist_pitch_joint'
p2608
aF-0.02045307717180855
aa(lp2609
S'wrist_roll_joint'
p2610
aF-0.02556634646476069
aa(lp2611
S'elbow_roll_joint'
p2612
aF0.11249192444494703
aa(lp2613
S'shoulder_pitch_joint'
p2614
aF1.69251923629441
aa(lp2615
S'gripper_roll_joint'
p2616
aF-0.0051132692929521375
aa(lp2617
S'shoulder_pan_joint'
p2618
aF-0.37326865838550605
aa(lp2619
S'gripper_grip_joint'
p2620
aF-0.0051132692929521375
aa(lp2621
S'elbow_pitch_joint'
p2622
aF-1.1402590523283267
aa(lp2623
S'wrist_pitch_joint'
p2624
aF-0.02045307717180855
aa(lp2625
S'wrist_roll_joint'
p2626
aF0.0051132692929521375
aa(lp2627
S'elbow_roll_joint'
p2628
aF0.10226538585904275
aa(lp2629
S'shoulder_pitch_joint'
p2630
aF1.6850349440303158
aa(lp2631
S'shoulder_pan_joint'
p2632
aF-0.37326865838550605
aa(lp2633
S'gripper_roll_joint'
p2634
aF-0.0051132692929521375
aa(lp2635
S'gripper_grip_joint'
p2636
aF-0.0051132692929521375
aa(lp2637
S'elbow_roll_joint'
p2638
aF0.09203884727313848
aa(lp2639
S'wrist_roll_joint'
p2640
aF0.03579288505066496
aa(lp2641
S'elbow_pitch_joint'
p2642
aF-1.1249192444494702
aa(lp2643
S'wrist_pitch_joint'
p2644
aF-0.02556634646476069
aa(lp2645
S'shoulder_pitch_joint'
p2646
aF1.6786198363753781
aa(lp2647
S'gripper_roll_joint'
p2648
aF-0.0051132692929521375
aa(lp2649
S'shoulder_pan_joint'
p2650
aF-0.37326865838550605
aa(lp2651
S'gripper_grip_joint'
p2652
aF-0.0051132692929521375
aa(lp2653
S'elbow_pitch_joint'
p2654
aF-1.114692705863566
aa(lp2655
S'wrist_roll_joint'
p2656
aF0.07158577010132992
aa(lp2657
S'elbow_roll_joint'
p2658
aF0.07158577010132992
aa(lp2659
S'shoulder_pitch_joint'
p2660
aF1.6722047287204402
aa(lp2661
S'wrist_pitch_joint'
p2662
aF-0.030679615757712823
aa(lp2663
S'shoulder_pan_joint'
p2664
aF-0.3681553890925539
aa(lp2665
S'gripper_grip_joint'
p2666
aF-0.0051132692929521375
aa(lp2667
S'gripper_roll_joint'
p2668
aF-0.0051132692929521375
aa(lp2669
S'elbow_pitch_joint'
p2670
aF-1.1095794365706138
aa(lp2671
S'wrist_roll_joint'
p2672
aF0.09715211656609062
aa(lp2673
S'elbow_roll_joint'
p2674
aF0.05113269292952138
aa(lp2675
S'shoulder_pitch_joint'
p2676
aF1.666858805674659
aa(lp2677
S'wrist_pitch_joint'
p2678
aF-0.04601942363656924
aa(lp2679
S'gripper_roll_joint'
p2680
aF-0.0051132692929521375
aa(lp2681
S'shoulder_pan_joint'
p2682
aF-0.3681553890925539
aa(lp2683
S'gripper_grip_joint'
p2684
aF-0.0051132692929521375
aa(lp2685
S'wrist_roll_joint'
p2686
aF0.11760519373789917
aa(lp2687
S'shoulder_pitch_joint'
p2688
aF1.6615128826288774
aa(lp2689
S'wrist_pitch_joint'
p2690
aF-0.05113269292952138
aa(lp2691
S'elbow_roll_joint'
p2692
aF0.02556634646476069
aa(lp2693
S'elbow_pitch_joint'
p2694
aF-1.0942396286917575
aa(lp2695
S'gripper_grip_joint'
p2696
aF-0.0051132692929521375
aa(lp2697
S'shoulder_pan_joint'
p2698
aF-0.3681553890925539
aa(lp2699
S'gripper_roll_joint'
p2700
aF-0.0051132692929521375
aa(lp2701
S'elbow_pitch_joint'
p2702
aF-1.078899820812901
aa(lp2703
S'elbow_roll_joint'
p2704
aF0.0
aa(lp2705
S'wrist_roll_joint'
p2706
aF0.1380582709097077
aa(lp2707
S'wrist_pitch_joint'
p2708
aF-0.056245962222473515
aa(lp2709
S'shoulder_pitch_joint'
p2710
aF1.6583053288014085
aa(lp2711
S'shoulder_pan_joint'
p2712
aF-0.36304211979960177
aa(lp2713
S'gripper_grip_joint'
p2714
aF-0.0051132692929521375
aa(lp2715
S'gripper_roll_joint'
p2716
aF-0.0051132692929521375
aa(lp2717
S'wrist_roll_joint'
p2718
aF0.15339807878856412
aa(lp2719
S'shoulder_pitch_joint'
p2720
aF1.656166959583096
aa(lp2721
S'elbow_pitch_joint'
p2722
aF-1.0686732822269966
aa(lp2723
S'wrist_pitch_joint'
p2724
aF-0.06647250080837779
aa(lp2725
S'elbow_roll_joint'
p2726
aF-0.02045307717180855
aa(lp2727
S'gripper_grip_joint'
p2728
aF-0.0051132692929521375
aa(lp2729
S'gripper_roll_joint'
p2730
aF-0.0051132692929521375
aa(lp2731
S'shoulder_pan_joint'
p2732
aF-0.36304211979960177
aa(lp2733
S'wrist_pitch_joint'
p2734
aF-0.07669903939428206
aa(lp2735
S'wrist_roll_joint'
p2736
aF0.15851134808151626
aa(lp2737
S'elbow_pitch_joint'
p2738
aF-1.0584467436410925
aa(lp2739
S'elbow_roll_joint'
p2740
aF-0.05113269292952138
aa(lp2741
S'shoulder_pitch_joint'
p2742
aF1.6540285903647833
aa(lp2743
S'wrist_pitch_joint'
p2744
aF-0.0818123086872342
aa(lp2745
S'wrist_roll_joint'
p2746
aF0.1636246173744684
aa(lp2747
S'elbow_roll_joint'
p2748
aF-0.07669903939428206
aa(lp2749
S'shoulder_pitch_joint'
p2750
aF1.6540285903647833
aa(lp2751
S'elbow_pitch_joint'
p2752
aF-1.043106935762236
aa(lp2753
S'gripper_roll_joint'
p2754
aF-0.0051132692929521375
aa(lp2755
S'gripper_grip_joint'
p2756
aF-0.0051132692929521375
aa(lp2757
S'shoulder_pan_joint'
p2758
aF-0.35792885050664963
aa(lp2759
S'shoulder_pan_joint'
p2760
aF-0.35792885050664963
aa(lp2761
S'gripper_grip_joint'
p2762
aF-0.0051132692929521375
aa(lp2763
S'gripper_roll_joint'
p2764
aF-0.0051132692929521375
aa(lp2765
S'elbow_roll_joint'
p2766
aF-0.09715211656609062
aa(lp2767
S'wrist_pitch_joint'
p2768
aF-0.08692557798018634
aa(lp2769
S'wrist_roll_joint'
p2770
aF0.1636246173744684
aa(lp2771
S'elbow_pitch_joint'
p2772
aF-1.043106935762236
aa(lp2773
S'shoulder_pitch_joint'
p2774
aF1.6540285903647833
aa(lp2775
S'gripper_grip_joint'
p2776
aF-0.0051132692929521375
aa(lp2777
S'gripper_roll_joint'
p2778
aF-0.0051132692929521375
aa(lp2779
S'shoulder_pan_joint'
p2780
aF-0.3528155812136975
aa(lp2781
S'elbow_roll_joint'
p2782
aF-0.11760519373789917
aa(lp2783
S'wrist_pitch_joint'
p2784
aF-0.09203884727313848
aa(lp2785
S'wrist_roll_joint'
p2786
aF0.1636246173744684
aa(lp2787
S'elbow_pitch_joint'
p2788
aF-1.037993666469284
aa(lp2789
S'shoulder_pitch_joint'
p2790
aF1.6540285903647833
aa(lp2791
S'gripper_roll_joint'
p2792
aF-0.0051132692929521375
aa(lp2793
S'shoulder_pan_joint'
p2794
aF-0.34770231192074535
aa(lp2795
S'gripper_grip_joint'
p2796
aF-0.0051132692929521375
aa(lp2797
S'wrist_roll_joint'
p2798
aF0.1636246173744684
aa(lp2799
S'shoulder_pitch_joint'
p2800
aF1.6540285903647833
aa(lp2801
S'wrist_pitch_joint'
p2802
aF-0.09715211656609062
aa(lp2803
S'elbow_pitch_joint'
p2804
aF-1.0277671278833795
aa(lp2805
S'elbow_roll_joint'
p2806
aF-0.14828480949561199
aa(lp2807
S'elbow_pitch_joint'
p2808
aF-1.0226538585904275
aa(lp2809
S'wrist_pitch_joint'
p2810
aF-0.09715211656609062
aa(lp2811
S'wrist_roll_joint'
p2812
aF0.1636246173744684
aa(lp2813
S'elbow_roll_joint'
p2814
aF-0.17385115596037268
aa(lp2815
S'shoulder_pitch_joint'
p2816
aF1.6540285903647833
aa(lp2817
S'shoulder_pan_joint'
p2818
aF-0.34770231192074535
aa(lp2819
S'gripper_roll_joint'
p2820
aF0.0
aa(lp2821
S'gripper_grip_joint'
p2822
aF-0.0051132692929521375
aa(lp2823
S'gripper_grip_joint'
p2824
aF-0.0051132692929521375
aa(lp2825
S'gripper_roll_joint'
p2826
aF-0.0051132692929521375
aa(lp2827
S'shoulder_pan_joint'
p2828
aF-0.3425890426277932
aa(lp2829
S'wrist_pitch_joint'
p2830
aF-0.10226538585904275
aa(lp2831
S'wrist_roll_joint'
p2832
aF0.1636246173744684
aa(lp2833
S'elbow_pitch_joint'
p2834
aF-1.0226538585904275
aa(lp2835
S'shoulder_pitch_joint'
p2836
aF1.6540285903647833
aa(lp2837
S'elbow_roll_joint'
p2838
aF-0.1891909638392291
aa(lp2839
S'gripper_roll_joint'
p2840
aF-0.0051132692929521375
aa(lp2841
S'gripper_grip_joint'
p2842
aF-0.0051132692929521375
aa(lp2843
S'shoulder_pan_joint'
p2844
aF-0.3374757733348411
aa(lp2845
S'elbow_roll_joint'
p2846
aF-0.20964404101103765
aa(lp2847
S'shoulder_pitch_joint'
p2848
aF1.656166959583096
aa(lp2849
S'wrist_pitch_joint'
p2850
aF-0.10226538585904275
aa(lp2851
S'wrist_roll_joint'
p2852
aF0.1636246173744684
aa(lp2853
S'elbow_pitch_joint'
p2854
aF-1.0226538585904275
aa(lp2855
S'gripper_roll_joint'
p2856
aF-0.0051132692929521375
aa(lp2857
S'gripper_grip_joint'
p2858
aF-0.0051132692929521375
aa(lp2859
S'shoulder_pan_joint'
p2860
aF-0.3272492347489368
aa(lp2861
S'elbow_roll_joint'
p2862
aF-0.2300971181828462
aa(lp2863
S'elbow_pitch_joint'
p2864
aF-1.0175405892974754
aa(lp2865
S'shoulder_pitch_joint'
p2866
aF1.6583053288014085
aa(lp2867
S'wrist_pitch_joint'
p2868
aF-0.10226538585904275
aa(lp2869
S'wrist_roll_joint'
p2870
aF0.1636246173744684
aa(lp2871
S'gripper_roll_joint'
p2872
aF-0.0051132692929521375
aa(lp2873
S'gripper_grip_joint'
p2874
aF-0.0051132692929521375
aa(lp2875
S'shoulder_pan_joint'
p2876
aF-0.3272492347489368
aa(lp2877
S'wrist_pitch_joint'
p2878
aF-0.10226538585904275
aa(lp2879
S'shoulder_pitch_joint'
p2880
aF1.6615128826288774
aa(lp2881
S'wrist_roll_joint'
p2882
aF0.1636246173744684
aa(lp2883
S'elbow_roll_joint'
p2884
aF-0.2454369260617026
aa(lp2885
S'elbow_pitch_joint'
p2886
aF-1.0124273200045233
aa(lp2887
S'gripper_roll_joint'
p2888
aF-0.0051132692929521375
aa(lp2889
S'gripper_grip_joint'
p2890
aF-0.0051132692929521375
aa(lp2891
S'shoulder_pan_joint'
p2892
aF-0.32213596545598466
aa(lp2893
S'elbow_roll_joint'
p2894
aF-0.26589000323351114
aa(lp2895
S'shoulder_pitch_joint'
p2896
aF1.6615128826288774
aa(lp2897
S'elbow_pitch_joint'
p2898
aF-1.002200781418619
aa(lp2899
S'wrist_roll_joint'
p2900
aF0.1636246173744684
aa(lp2901
S'wrist_pitch_joint'
p2902
aF-0.10226538585904275
aa(lp2903
S'gripper_roll_joint'
p2904
aF-0.0051132692929521375
aa(lp2905
S'gripper_grip_joint'
p2906
aF-0.0051132692929521375
aa(lp2907
S'shoulder_pan_joint'
p2908
aF-0.3119094268700804
aa(lp2909
S'elbow_roll_joint'
p2910
aF-0.28122981111236756
aa(lp2911
S'elbow_pitch_joint'
p2912
aF-0.9970875121256668
aa(lp2913
S'shoulder_pitch_joint'
p2914
aF1.6625820672380336
aa(lp2915
S'wrist_roll_joint'
p2916
aF0.1636246173744684
aa(lp2917
S'wrist_pitch_joint'
p2918
aF-0.10226538585904275
aa(lp2919
S'shoulder_pan_joint'
p2920
aF-0.3016828882841761
aa(lp2921
S'gripper_grip_joint'
p2922
aF-0.0051132692929521375
aa(lp2923
S'gripper_roll_joint'
p2924
aF-0.0051132692929521375
aa(lp2925
S'wrist_pitch_joint'
p2926
aF-0.10226538585904275
aa(lp2927
S'shoulder_pitch_joint'
p2928
aF1.6625820672380336
aa(lp2929
S'elbow_pitch_joint'
p2930
aF-0.9817477042468103
aa(lp2931
S'elbow_roll_joint'
p2932
aF-0.3016828882841761
aa(lp2933
S'wrist_roll_joint'
p2934
aF0.1636246173744684
aa(lp2935
S'gripper_grip_joint'
p2936
aF-0.0051132692929521375
aa(lp2937
S'gripper_roll_joint'
p2938
aF-0.0051132692929521375
aa(lp2939
S'shoulder_pan_joint'
p2940
aF-0.29145634969827183
aa(lp2941
S'elbow_roll_joint'
p2942
aF-0.32213596545598466
aa(lp2943
S'elbow_pitch_joint'
p2944
aF-0.9766344349538583
aa(lp2945
S'wrist_roll_joint'
p2946
aF0.15851134808151626
aa(lp2947
S'wrist_pitch_joint'
p2948
aF-0.10226538585904275
aa(lp2949
S'shoulder_pitch_joint'
p2950
aF1.6625820672380336
aa(lp2951
S'gripper_roll_joint'
p2952
aF-0.010226538585904275
aa(lp2953
S'shoulder_pan_joint'
p2954
aF-0.29145634969827183
aa(lp2955
S'gripper_grip_joint'
p2956
aF-0.0051132692929521375
aa(lp2957
S'elbow_roll_joint'
p2958
aF-0.33236250404188894
aa(lp2959
S'shoulder_pitch_joint'
p2960
aF1.6625820672380336
aa(lp2961
S'elbow_pitch_joint'
p2962
aF-0.9715211656609062
aa(lp2963
S'wrist_roll_joint'
p2964
aF0.15851134808151626
aa(lp2965
S'wrist_pitch_joint'
p2966
aF-0.10226538585904275
aa(lp2967
S'shoulder_pan_joint'
p2968
aF-0.2863430804053197
aa(lp2969
S'gripper_roll_joint'
p2970
aF-0.010226538585904275
aa(lp2971
S'gripper_grip_joint'
p2972
aF-0.0051132692929521375
aa(lp2973
S'wrist_roll_joint'
p2974
aF0.15851134808151626
aa(lp2975
S'wrist_pitch_joint'
p2976
aF-0.10226538585904275
aa(lp2977
S'elbow_roll_joint'
p2978
aF-0.3528155812136975
aa(lp2979
S'shoulder_pitch_joint'
p2980
aF1.6625820672380336
aa(lp2981
S'elbow_pitch_joint'
p2982
aF-0.966407896367954
aa(lp2983
S'gripper_roll_joint'
p2984
aF-0.015339807878856412
aa(lp2985
S'shoulder_pan_joint'
p2986
aF-0.2761165418194154
aa(lp2987
S'gripper_grip_joint'
p2988
aF-0.0051132692929521375
aa(lp2989
S'elbow_roll_joint'
p2990
aF-0.36304211979960177
aa(lp2991
S'wrist_pitch_joint'
p2992
aF-0.10226538585904275
aa(lp2993
S'shoulder_pitch_joint'
p2994
aF1.6625820672380336
aa(lp2995
S'elbow_pitch_joint'
p2996
aF-0.9510680884890976
aa(lp2997
S'wrist_roll_joint'
p2998
aF0.15851134808151626
aa(lp2999
S'gripper_roll_joint'
p3000
aF-0.015339807878856412
aa(lp3001
S'gripper_grip_joint'
p3002
aF0.0
aa(lp3003
S'shoulder_pan_joint'
p3004
aF-0.26589000323351114
aa(lp3005
S'shoulder_pitch_joint'
p3006
aF1.6625820672380336
aa(lp3007
S'wrist_pitch_joint'
p3008
aF-0.10226538585904275
aa(lp3009
S'elbow_pitch_joint'
p3010
aF-0.9459548191961454
aa(lp3011
S'elbow_roll_joint'
p3012
aF-0.3834951969714103
aa(lp3013
S'wrist_roll_joint'
p3014
aF0.15851134808151626
aa(lp3015
S'gripper_roll_joint'
p3016
aF-0.015339807878856412
aa(lp3017
S'shoulder_pan_joint'
p3018
aF-0.260776733940559
aa(lp3019
S'gripper_grip_joint'
p3020
aF0.0
aa(lp3021
S'wrist_pitch_joint'
p3022
aF-0.10226538585904275
aa(lp3023
S'shoulder_pitch_joint'
p3024
aF1.6625820672380336
aa(lp3025
S'wrist_roll_joint'
p3026
aF0.15851134808151626
aa(lp3027
S'elbow_pitch_joint'
p3028
aF-0.9306150113172891
aa(lp3029
S'elbow_roll_joint'
p3030
aF-0.39883500485026674
aa(lp3031
S'gripper_roll_joint'
p3032
aF-0.015339807878856412
aa(lp3033
S'gripper_grip_joint'
p3034
aF0.0
aa(lp3035
S'shoulder_pan_joint'
p3036
aF-0.2505501953546547
aa(lp3037
S'elbow_roll_joint'
p3038
aF-0.41417481272912315
aa(lp3039
S'elbow_pitch_joint'
p3040
aF-0.9203884727313848
aa(lp3041
S'wrist_pitch_joint'
p3042
aF-0.10226538585904275
aa(lp3043
S'shoulder_pitch_joint'
p3044
aF1.6625820672380336
aa(lp3045
S'wrist_roll_joint'
p3046
aF0.15851134808151626
aa(lp3047
S'gripper_roll_joint'
p3048
aF-0.015339807878856412
aa(lp3049
S'shoulder_pan_joint'
p3050
aF-0.2454369260617026
aa(lp3051
S'gripper_grip_joint'
p3052
aF0.0
aa(lp3053
S'elbow_roll_joint'
p3054
aF-0.42440135131502743
aa(lp3055
S'shoulder_pitch_joint'
p3056
aF1.6625820672380336
aa(lp3057
S'elbow_pitch_joint'
p3058
aF-0.9101619341454805
aa(lp3059
S'wrist_pitch_joint'
p3060
aF-0.10226538585904275
aa(lp3061
S'wrist_roll_joint'
p3062
aF0.15851134808151626
aa(lp3063
S'gripper_roll_joint'
p3064
aF-0.015339807878856412
aa(lp3065
S'shoulder_pan_joint'
p3066
aF-0.24032365676875048
aa(lp3067
S'gripper_grip_joint'
p3068
aF0.0
aa(lp3069
S'elbow_roll_joint'
p3070
aF-0.43974115919388385
aa(lp3071
S'elbow_pitch_joint'
p3072
aF-0.9050486648525283
aa(lp3073
S'shoulder_pitch_joint'
p3074
aF1.6625820672380336
aa(lp3075
S'wrist_pitch_joint'
p3076
aF-0.10226538585904275
aa(lp3077
S'wrist_roll_joint'
p3078
aF0.15851134808151626
aa(lp3079
S'gripper_roll_joint'
p3080
aF-0.015339807878856412
aa(lp3081
S'gripper_grip_joint'
p3082
aF0.0
aa(lp3083
S'shoulder_pan_joint'
p3084
aF-0.2300971181828462
aa(lp3085
S'wrist_pitch_joint'
p3086
aF-0.10226538585904275
aa(lp3087
S'shoulder_pitch_joint'
p3088
aF1.66365125184719
aa(lp3089
S'wrist_roll_joint'
p3090
aF0.15851134808151626
aa(lp3091
S'elbow_pitch_joint'
p3092
aF-0.894822126266624
aa(lp3093
S'elbow_roll_joint'
p3094
aF-0.45508096707274026
aa(lp3095
S'gripper_roll_joint'
p3096
aF-0.015339807878856412
aa(lp3097
S'gripper_grip_joint'
p3098
aF0.0
aa(lp3099
S'shoulder_pan_joint'
p3100
aF-0.21987057959694192
aa(lp3101
S'shoulder_pitch_joint'
p3102
aF1.6647204364563462
aa(lp3103
S'wrist_pitch_joint'
p3104
aF-0.10226538585904275
aa(lp3105
S'elbow_pitch_joint'
p3106
aF-0.8845955876807198
aa(lp3107
S'wrist_roll_joint'
p3108
aF0.15851134808151626
aa(lp3109
S'elbow_roll_joint'
p3110
aF-0.4755340442445488
aa(lp3111
S'gripper_roll_joint'
p3112
aF-0.015339807878856412
aa(lp3113
S'shoulder_pan_joint'
p3114
aF-0.21475731030398978
aa(lp3115
S'gripper_grip_joint'
p3116
aF0.0
aa(lp3117
S'wrist_pitch_joint'
p3118
aF-0.10226538585904275
aa(lp3119
S'shoulder_pitch_joint'
p3120
aF1.667927990283815
aa(lp3121
S'wrist_roll_joint'
p3122
aF0.15851134808151626
aa(lp3123
S'elbow_roll_joint'
p3124
aF-0.4857605828304531
aa(lp3125
S'elbow_pitch_joint'
p3126
aF-0.8743690490948155
aa(lp3127
S'gripper_roll_joint'
p3128
aF-0.015339807878856412
aa(lp3129
S'shoulder_pan_joint'
p3130
aF-0.20964404101103765
aa(lp3131
S'gripper_grip_joint'
p3132
aF0.0
aa(lp3133
S'elbow_roll_joint'
p3134
aF-0.5011003907093095
aa(lp3135
S'shoulder_pitch_joint'
p3136
aF1.671135544111284
aa(lp3137
S'wrist_pitch_joint'
p3138
aF-0.10226538585904275
aa(lp3139
S'wrist_roll_joint'
p3140
aF0.15851134808151626
aa(lp3141
S'elbow_pitch_joint'
p3142
aF-0.8692557798018634
aa(lp3143
S'gripper_grip_joint'
p3144
aF0.0
aa(lp3145
S'shoulder_pan_joint'
p3146
aF-0.2045307717180855
aa(lp3147
S'gripper_roll_joint'
p3148
aF-0.015339807878856412
aa(lp3149
S'shoulder_pitch_joint'
p3150
aF1.6754122825479092
aa(lp3151
S'wrist_pitch_joint'
p3152
aF-0.10226538585904275
aa(lp3153
S'elbow_roll_joint'
p3154
aF-0.5113269292952137
aa(lp3155
S'wrist_roll_joint'
p3156
aF0.15851134808151626
aa(lp3157
S'elbow_pitch_joint'
p3158
aF-0.8641425105089112
aa(lp3159
S'shoulder_pan_joint'
p3160
aF-0.19941750242513337
aa(lp3161
S'gripper_grip_joint'
p3162
aF0.0
aa(lp3163
S'gripper_roll_joint'
p3164
aF-0.015339807878856412
aa(lp3165
S'gripper_grip_joint'
p3166
aF0.0
aa(lp3167
S'gripper_roll_joint'
p3168
aF-0.015339807878856412
aa(lp3169
S'shoulder_pan_joint'
p3170
aF-0.19430423313218123
aa(lp3171
S'elbow_roll_joint'
p3172
aF-0.5266667371740702
aa(lp3173
S'elbow_pitch_joint'
p3174
aF-0.8590292412159591
aa(lp3175
S'wrist_pitch_joint'
p3176
aF-0.10226538585904275
aa(lp3177
S'shoulder_pitch_joint'
p3178
aF1.6796890209845343
aa(lp3179
S'wrist_roll_joint'
p3180
aF0.15851134808151626
aa(lp3181
S'shoulder_pitch_joint'
p3182
aF1.6871733132486284
aa(lp3183
S'wrist_pitch_joint'
p3184
aF-0.10226538585904275
aa(lp3185
S'wrist_roll_joint'
p3186
aF0.15851134808151626
aa(lp3187
S'elbow_pitch_joint'
p3188
aF-0.8436894333371027
aa(lp3189
S'elbow_roll_joint'
p3190
aF-0.5317800064670223
aa(lp3191
S'gripper_roll_joint'
p3192
aF-0.015339807878856412
aa(lp3193
S'shoulder_pan_joint'
p3194
aF-0.17896442525332482
aa(lp3195
S'gripper_grip_joint'
p3196
aF0.0
aa(lp3197
S'wrist_roll_joint'
p3198
aF0.15851134808151626
aa(lp3199
S'elbow_pitch_joint'
p3200
aF-0.8385761640441506
aa(lp3201
S'wrist_pitch_joint'
p3202
aF-0.10226538585904275
aa(lp3203
S'elbow_roll_joint'
p3204
aF-0.5471198143458788
aa(lp3205
S'shoulder_pitch_joint'
p3206
aF1.693588420903566
aa(lp3207
S'gripper_grip_joint'
p3208
aF0.0
aa(lp3209
S'gripper_roll_joint'
p3210
aF-0.015339807878856412
aa(lp3211
S'shoulder_pan_joint'
p3212
aF-0.17385115596037268
aa(lp3213
S'wrist_roll_joint'
p3214
aF0.15851134808151626
aa(lp3215
S'shoulder_pitch_joint'
p3216
aF1.7010727131676602
aa(lp3217
S'wrist_pitch_joint'
p3218
aF-0.10737865515199489
aa(lp3219
S'elbow_pitch_joint'
p3220
aF-0.8385761640441506
aa(lp3221
S'elbow_roll_joint'
p3222
aF-0.557346352931783
aa(lp3223
S'gripper_roll_joint'
p3224
aF-0.015339807878856412
aa(lp3225
S'shoulder_pan_joint'
p3226
aF-0.1636246173744684
aa(lp3227
S'gripper_grip_joint'
p3228
aF0.0
aa(lp3229
S'wrist_pitch_joint'
p3230
aF-0.10737865515199489
aa(lp3231
S'elbow_pitch_joint'
p3232
aF-0.8385761640441506
aa(lp3233
S'wrist_roll_joint'
p3234
aF0.15851134808151626
aa(lp3235
S'elbow_roll_joint'
p3236
aF-0.5624596222247351
aa(lp3237
S'shoulder_pitch_joint'
p3238
aF1.7096261900409104
aa(lp3239
S'gripper_grip_joint'
p3240
aF0.0
aa(lp3241
S'shoulder_pan_joint'
p3242
aF-0.15851134808151626
aa(lp3243
S'gripper_roll_joint'
p3244
aF-0.015339807878856412
aa(lp3245
S'elbow_roll_joint'
p3246
aF-0.5777994301035916
aa(lp3247
S'wrist_pitch_joint'
p3248
aF-0.1227184630308513
aa(lp3249
S'shoulder_pitch_joint'
p3250
aF1.719248851523317
aa(lp3251
S'wrist_roll_joint'
p3252
aF0.15851134808151626
aa(lp3253
S'elbow_pitch_joint'
p3254
aF-0.8283496254582463
aa(lp3255
S'shoulder_pan_joint'
p3256
aF-0.14828480949561199
aa(lp3257
S'gripper_grip_joint'
p3258
aF0.0
aa(lp3259
S'gripper_roll_joint'
p3260
aF-0.02045307717180855
aa(lp3261
S'wrist_pitch_joint'
p3262
aF-0.1227184630308513
aa(lp3263
S'elbow_pitch_joint'
p3264
aF-0.818123086872342
aa(lp3265
S'elbow_roll_joint'
p3266
aF-0.5777994301035916
aa(lp3267
S'wrist_roll_joint'
p3268
aF0.15851134808151626
aa(lp3269
S'shoulder_pitch_joint'
p3270
aF1.7288715130057237
aa(lp3271
S'shoulder_pan_joint'
p3272
aF-0.14317154020265985
aa(lp3273
S'gripper_grip_joint'
p3274
aF0.0
aa(lp3275
S'gripper_roll_joint'
p3276
aF-0.015339807878856412
aa(lp3277
S'elbow_pitch_joint'
p3278
aF-0.8130098175793898
aa(lp3279
S'wrist_pitch_joint'
p3280
aF-0.12783173232380343
aa(lp3281
S'wrist_roll_joint'
p3282
aF0.15851134808151626
aa(lp3283
S'shoulder_pitch_joint'
p3284
aF1.7417017283155993
aa(lp3285
S'elbow_roll_joint'
p3286
aF-0.5829126993965437
aa(lp3287
S'gripper_grip_joint'
p3288
aF0.0
aa(lp3289
S'gripper_roll_joint'
p3290
aF-0.015339807878856412
aa(lp3291
S'shoulder_pan_joint'
p3292
aF-0.13294500161675557
aa(lp3293
S'elbow_pitch_joint'
p3294
aF-0.8078965482864378
aa(lp3295
S'wrist_roll_joint'
p3296
aF0.15851134808151626
aa(lp3297
S'shoulder_pitch_joint'
p3298
aF1.7534627590163185
aa(lp3299
S'elbow_roll_joint'
p3300
aF-0.5829126993965437
aa(lp3301
S'wrist_pitch_joint'
p3302
aF-0.13294500161675557
aa(lp3303
S'gripper_grip_joint'
p3304
aF0.0
aa(lp3305
S'gripper_roll_joint'
p3306
aF-0.015339807878856412
aa(lp3307
S'shoulder_pan_joint'
p3308
aF-0.13294500161675557
aa(lp3309
S'elbow_pitch_joint'
p3310
aF-0.8027832789934856
aa(lp3311
S'shoulder_pitch_joint'
p3312
aF1.770569712762819
aa(lp3313
S'elbow_roll_joint'
p3314
aF-0.5829126993965437
aa(lp3315
S'wrist_roll_joint'
p3316
aF0.15851134808151626
aa(lp3317
S'wrist_pitch_joint'
p3318
aF-0.14828480949561199
aa(lp3319
S'gripper_roll_joint'
p3320
aF-0.02045307717180855
aa(lp3321
S'shoulder_pan_joint'
p3322
aF-0.1227184630308513
aa(lp3323
S'gripper_grip_joint'
p3324
aF0.0
aa(lp3325
S'shoulder_pitch_joint'
p3326
aF1.7866074819001636
aa(lp3327
S'elbow_pitch_joint'
p3328
aF-0.7976700097005335
aa(lp3329
S'wrist_roll_joint'
p3330
aF0.15851134808151626
aa(lp3331
S'wrist_pitch_joint'
p3332
aF-0.15851134808151626
aa(lp3333
S'elbow_roll_joint'
p3334
aF-0.5829126993965437
aa(lp3335
S'gripper_grip_joint'
p3336
aF0.0
aa(lp3337
S'shoulder_pan_joint'
p3338
aF-0.11249192444494703
aa(lp3339
S'gripper_roll_joint'
p3340
aF-0.015339807878856412
aa(lp3341
S'elbow_pitch_joint'
p3342
aF-0.7925567404075813
aa(lp3343
S'wrist_roll_joint'
p3344
aF0.15851134808151626
aa(lp3345
S'wrist_pitch_joint'
p3346
aF-0.16873788666742054
aa(lp3347
S'shoulder_pitch_joint'
p3348
aF1.8047836202558205
aa(lp3349
S'elbow_roll_joint'
p3350
aF-0.5829126993965437
aa(lp3351
S'shoulder_pan_joint'
p3352
aF-0.10737865515199489
aa(lp3353
S'gripper_grip_joint'
p3354
aF0.0
aa(lp3355
S'gripper_roll_joint'
p3356
aF-0.015339807878856412
aa(lp3357
S'wrist_roll_joint'
p3358
aF0.15851134808151626
aa(lp3359
S'wrist_pitch_joint'
p3360
aF-0.1891909638392291
aa(lp3361
S'elbow_roll_joint'
p3362
aF-0.5829126993965437
aa(lp3363
S'elbow_pitch_joint'
p3364
aF-0.7874434711146292
aa(lp3365
S'shoulder_pitch_joint'
p3366
aF1.8240289432206338
aa(lp3367
S'gripper_roll_joint'
p3368
aF-0.015339807878856412
aa(lp3369
S'shoulder_pan_joint'
p3370
aF-0.10226538585904275
aa(lp3371
S'gripper_grip_joint'
p3372
aF0.0
aa(lp3373
S'shoulder_pitch_joint'
p3374
aF1.8422050815762907
aa(lp3375
S'wrist_pitch_joint'
p3376
aF-0.21475731030398978
aa(lp3377
S'elbow_roll_joint'
p3378
aF-0.5931392379824479
aa(lp3379
S'wrist_roll_joint'
p3380
aF0.15851134808151626
aa(lp3381
S'elbow_pitch_joint'
p3382
aF-0.7721036632357727
aa(lp3383
S'shoulder_pan_joint'
p3384
aF-0.09715211656609062
aa(lp3385
S'gripper_grip_joint'
p3386
aF0.0
aa(lp3387
S'gripper_roll_joint'
p3388
aF-0.015339807878856412
aa(lp3389
S'elbow_roll_joint'
p3390
aF-0.5982525072754001
aa(lp3391
S'shoulder_pitch_joint'
p3392
aF1.850758558449541
aa(lp3393
S'gripper_grip_joint'
p3394
aF0.0
aa(lp3395
S'gripper_roll_joint'
p3396
aF-0.02045307717180855
aa(lp3397
S'shoulder_pan_joint'
p3398
aF-0.09715211656609062
aa(lp3399
S'elbow_pitch_joint'
p3400
aF-0.7363107781851078
aa(lp3401
S'wrist_pitch_joint'
p3402
aF-0.2454369260617026
aa(lp3403
S'wrist_roll_joint'
p3404
aF0.15851134808151626
aa(lp3405
S'gripper_roll_joint'
p3406
aF-0.02045307717180855
aa(lp3407
S'gripper_grip_joint'
p3408
aF0.0
aa(lp3409
S'shoulder_pan_joint'
p3410
aF-0.09715211656609062
aa(lp3411
S'elbow_roll_joint'
p3412
aF-0.6084790458613044
aa(lp3413
S'elbow_pitch_joint'
p3414
aF-0.7005178931344428
aa(lp3415
S'shoulder_pitch_joint'
p3416
aF1.8486201892312284
aa(lp3417
S'wrist_roll_joint'
p3418
aF0.15851134808151626
aa(lp3419
S'wrist_pitch_joint'
p3420
aF-0.2863430804053197
aa(lp3421
S'wrist_roll_joint'
p3422
aF0.15851134808151626
aa(lp3423
S'elbow_pitch_joint'
p3424
aF-0.6851780852555864
aa(lp3425
S'wrist_pitch_joint'
p3426
aF-0.29656961899122397
aa(lp3427
S'elbow_roll_joint'
p3428
aF-0.6238188537401608
aa(lp3429
S'shoulder_pitch_joint'
p3430
aF1.8432742661854469
aa(lp3431
S'gripper_roll_joint'
p3432
aF-0.02045307717180855
aa(lp3433
S'gripper_grip_joint'
p3434
aF0.0051132692929521375
aa(lp3435
S'shoulder_pan_joint'
p3436
aF-0.09203884727313848
aa(lp3437
S'wrist_pitch_joint'
p3438
aF-0.32213596545598466
aa(lp3439
S'elbow_roll_joint'
p3440
aF-0.628932123033113
aa(lp3441
S'wrist_roll_joint'
p3442
aF0.15851134808151626
aa(lp3443
S'elbow_pitch_joint'
p3444
aF-0.6596117387908257
aa(lp3445
S'shoulder_pitch_joint'
p3446
aF1.8389975277488217
aa(lp3447
S'gripper_roll_joint'
p3448
aF-0.02045307717180855
aa(lp3449
S'gripper_grip_joint'
p3450
aF0.0051132692929521375
aa(lp3451
S'shoulder_pan_joint'
p3452
aF-0.09203884727313848
aa(lp3453
S'elbow_roll_joint'
p3454
aF-0.6238188537401608
aa(lp3455
S'wrist_roll_joint'
p3456
aF0.15851134808151626
aa(lp3457
S'wrist_pitch_joint'
p3458
aF-0.34770231192074535
aa(lp3459
S'elbow_pitch_joint'
p3460
aF-0.634045392326065
aa(lp3461
S'shoulder_pitch_joint'
p3462
aF1.8368591585305092
aa(lp3463
S'gripper_roll_joint'
p3464
aF-0.02045307717180855
aa(lp3465
S'gripper_grip_joint'
p3466
aF0.0051132692929521375
aa(lp3467
S'shoulder_pan_joint'
p3468
aF-0.08692557798018634
aa(lp3469
S'wrist_pitch_joint'
p3470
aF-0.3783819276784582
aa(lp3471
S'elbow_roll_joint'
p3472
aF-0.6187055844472087
aa(lp3473
S'wrist_roll_joint'
p3474
aF0.15851134808151626
aa(lp3475
S'elbow_pitch_joint'
p3476
aF-0.6238188537401608
aa(lp3477
S'shoulder_pitch_joint'
p3478
aF1.835789973921353
aa(lp3479
S'gripper_roll_joint'
p3480
aF-0.02045307717180855
aa(lp3481
S'gripper_grip_joint'
p3482
aF0.0051132692929521375
aa(lp3483
S'shoulder_pan_joint'
p3484
aF-0.08692557798018634
aa(lp3485
S'elbow_roll_joint'
p3486
aF-0.6033657765683522
aa(lp3487
S'wrist_pitch_joint'
p3488
aF-0.41417481272912315
aa(lp3489
S'wrist_roll_joint'
p3490
aF0.1636246173744684
aa(lp3491
S'shoulder_pitch_joint'
p3492
aF1.835789973921353
aa(lp3493
S'elbow_pitch_joint'
p3494
aF-0.6033657765683522
aa(lp3495
S'gripper_roll_joint'
p3496
aF-0.02045307717180855
aa(lp3497
S'gripper_grip_joint'
p3498
aF0.0051132692929521375
aa(lp3499
S'shoulder_pan_joint'
p3500
aF-0.08692557798018634
aa(lp3501
S'elbow_roll_joint'
p3502
aF-0.5931392379824479
aa(lp3503
S'wrist_roll_joint'
p3504
aF0.1636246173744684
aa(lp3505
S'elbow_pitch_joint'
p3506
aF-0.5777994301035916
aa(lp3507
S'shoulder_pitch_joint'
p3508
aF1.835789973921353
aa(lp3509
S'wrist_pitch_joint'
p3510
aF-0.42951462060797957
aa(lp3511
S'shoulder_pan_joint'
p3512
aF-0.08692557798018634
aa(lp3513
S'gripper_roll_joint'
p3514
aF-0.02045307717180855
aa(lp3515
S'gripper_grip_joint'
p3516
aF0.0051132692929521375
aa(lp3517
S'elbow_roll_joint'
p3518
aF-0.5777994301035916
aa(lp3519
S'shoulder_pitch_joint'
p3520
aF1.835789973921353
aa(lp3521
S'wrist_pitch_joint'
p3522
aF-0.444854428486836
aa(lp3523
S'wrist_roll_joint'
p3524
aF0.1636246173744684
aa(lp3525
S'elbow_pitch_joint'
p3526
aF-0.5624596222247351
aa(lp3527
S'gripper_roll_joint'
p3528
aF-0.02045307717180855
aa(lp3529
S'gripper_grip_joint'
p3530
aF0.010226538585904275
aa(lp3531
S'shoulder_pan_joint'
p3532
aF-0.0818123086872342
aa(lp3533
S'elbow_roll_joint'
p3534
aF-0.5675728915176873
aa(lp3535
S'elbow_pitch_joint'
p3536
aF-0.5368932757599745
aa(lp3537
S'wrist_roll_joint'
p3538
aF0.1636246173744684
aa(lp3539
S'shoulder_pitch_joint'
p3540
aF1.835789973921353
aa(lp3541
S'wrist_pitch_joint'
p3542
aF-0.4601942363656924
aa(lp3543
S'gripper_roll_joint'
p3544
aF-0.02045307717180855
aa(lp3545
S'gripper_grip_joint'
p3546
aF0.010226538585904275
aa(lp3547
S'shoulder_pan_joint'
p3548
aF-0.0818123086872342
aa(lp3549
S'elbow_roll_joint'
p3550
aF-0.5522330836388308
aa(lp3551
S'elbow_pitch_joint'
p3552
aF-0.5164401985881659
aa(lp3553
S'wrist_pitch_joint'
p3554
aF-0.4755340442445488
aa(lp3555
S'wrist_roll_joint'
p3556
aF0.1636246173744684
aa(lp3557
S'shoulder_pitch_joint'
p3558
aF1.835789973921353
aa(lp3559
S'gripper_roll_joint'
p3560
aF-0.015339807878856412
aa(lp3561
S'gripper_grip_joint'
p3562
aF0.010226538585904275
aa(lp3563
S'shoulder_pan_joint'
p3564
aF-0.0818123086872342
aa(lp3565
S'elbow_roll_joint'
p3566
aF-0.5317800064670223
aa(lp3567
S'wrist_roll_joint'
p3568
aF0.16873788666742054
aa(lp3569
S'wrist_pitch_joint'
p3570
aF-0.4857605828304531
aa(lp3571
S'elbow_pitch_joint'
p3572
aF-0.5011003907093095
aa(lp3573
S'shoulder_pitch_joint'
p3574
aF1.835789973921353
aa(lp3575
S'gripper_roll_joint'
p3576
aF-0.015339807878856412
aa(lp3577
S'gripper_grip_joint'
p3578
aF0.010226538585904275
aa(lp3579
S'shoulder_pan_joint'
p3580
aF-0.0818123086872342
aa(lp3581
S'wrist_roll_joint'
p3582
aF0.17385115596037268
aa(lp3583
S'shoulder_pitch_joint'
p3584
aF1.835789973921353
aa(lp3585
S'elbow_roll_joint'
p3586
aF-0.5113269292952137
aa(lp3587
S'elbow_pitch_joint'
p3588
aF-0.48064731353750095
aa(lp3589
S'wrist_pitch_joint'
p3590
aF-0.4908738521234052
aa(lp3591
S'shoulder_pan_joint'
p3592
aF-0.0818123086872342
aa(lp3593
S'gripper_grip_joint'
p3594
aF0.010226538585904275
aa(lp3595
S'gripper_roll_joint'
p3596
aF-0.02045307717180855
aa(lp3597
S'shoulder_pitch_joint'
p3598
aF1.835789973921353
aa(lp3599
S'elbow_roll_joint'
p3600
aF-0.4908738521234052
aa(lp3601
S'wrist_pitch_joint'
p3602
aF-0.4959871214163573
aa(lp3603
S'wrist_roll_joint'
p3604
aF0.17896442525332482
aa(lp3605
S'elbow_pitch_joint'
p3606
aF-0.4704207749515967
aa(lp3607
S'gripper_roll_joint'
p3608
aF-0.015339807878856412
aa(lp3609
S'gripper_grip_joint'
p3610
aF0.010226538585904275
aa(lp3611
S'shoulder_pan_joint'
p3612
aF-0.0818123086872342
aa(lp3613
S'wrist_roll_joint'
p3614
aF0.17896442525332482
aa(lp3615
S'wrist_pitch_joint'
p3616
aF-0.5011003907093095
aa(lp3617
S'elbow_roll_joint'
p3618
aF-0.46530750565864454
aa(lp3619
S'elbow_pitch_joint'
p3620
aF-0.444854428486836
aa(lp3621
S'shoulder_pitch_joint'
p3622
aF1.835789973921353
aa(lp3623
S'gripper_roll_joint'
p3624
aF-0.015339807878856412
aa(lp3625
S'shoulder_pan_joint'
p3626
aF-0.0818123086872342
aa(lp3627
S'gripper_grip_joint'
p3628
aF0.010226538585904275
aa(lp3629
S'wrist_roll_joint'
p3630
aF0.17896442525332482
aa(lp3631
S'wrist_pitch_joint'
p3632
aF-0.5062136600022616
aa(lp3633
S'elbow_roll_joint'
p3634
aF-0.42951462060797957
aa(lp3635
S'elbow_pitch_joint'
p3636
aF-0.42951462060797957
aa(lp3637
S'shoulder_pitch_joint'
p3638
aF1.835789973921353
aa(lp3639
S'shoulder_pan_joint'
p3640
aF-0.0818123086872342
aa(lp3641
S'gripper_roll_joint'
p3642
aF-0.015339807878856412
aa(lp3643
S'gripper_grip_joint'
p3644
aF0.010226538585904275
aa(lp3645
S'wrist_pitch_joint'
p3646
aF-0.5062136600022616
aa(lp3647
S'wrist_roll_joint'
p3648
aF0.18407769454627695
aa(lp3649
S'elbow_roll_joint'
p3650
aF-0.4039482741432189
aa(lp3651
S'elbow_pitch_joint'
p3652
aF-0.41417481272912315
aa(lp3653
S'shoulder_pitch_joint'
p3654
aF1.835789973921353
aa(lp3655
S'gripper_roll_joint'
p3656
aF-0.015339807878856412
aa(lp3657
S'shoulder_pan_joint'
p3658
aF-0.0818123086872342
aa(lp3659
S'gripper_grip_joint'
p3660
aF0.010226538585904275
aa(lp3661
S'wrist_roll_joint'
p3662
aF0.18407769454627695
aa(lp3663
S'shoulder_pitch_joint'
p3664
aF1.835789973921353
aa(lp3665
S'wrist_pitch_joint'
p3666
aF-0.5062136600022616
aa(lp3667
S'elbow_pitch_joint'
p3668
aF-0.4039482741432189
aa(lp3669
S'elbow_roll_joint'
p3670
aF-0.3681553890925539
aa(lp3671
S'shoulder_pan_joint'
p3672
aF-0.0818123086872342
aa(lp3673
S'gripper_roll_joint'
p3674
aF-0.015339807878856412
aa(lp3675
S'gripper_grip_joint'
p3676
aF0.015339807878856412
aa(lp3677
S'elbow_roll_joint'
p3678
aF-0.33236250404188894
aa(lp3679
S'wrist_pitch_joint'
p3680
aF-0.5062136600022616
aa(lp3681
S'shoulder_pitch_joint'
p3682
aF1.835789973921353
aa(lp3683
S'wrist_roll_joint'
p3684
aF0.18407769454627695
aa(lp3685
S'elbow_pitch_joint'
p3686
aF-0.38860846626436246
aa(lp3687
S'shoulder_pan_joint'
p3688
aF-0.08692557798018634
aa(lp3689
S'gripper_grip_joint'
p3690
aF0.010226538585904275
aa(lp3691
S'gripper_roll_joint'
p3692
aF-0.015339807878856412
aa(lp3693
S'wrist_pitch_joint'
p3694
aF-0.5062136600022616
aa(lp3695
S'wrist_roll_joint'
p3696
aF0.18407769454627695
aa(lp3697
S'elbow_roll_joint'
p3698
aF-0.3016828882841761
aa(lp3699
S'elbow_pitch_joint'
p3700
aF-0.37326865838550605
aa(lp3701
S'shoulder_pitch_joint'
p3702
aF1.835789973921353
aa(lp3703
S'gripper_grip_joint'
p3704
aF0.015339807878856412
aa(lp3705
S'gripper_roll_joint'
p3706
aF-0.015339807878856412
aa(lp3707
S'shoulder_pan_joint'
p3708
aF-0.08692557798018634
aa(lp3709
S'elbow_roll_joint'
p3710
aF-0.260776733940559
aa(lp3711
S'wrist_roll_joint'
p3712
aF0.18407769454627695
aa(lp3713
S'wrist_pitch_joint'
p3714
aF-0.5062136600022616
aa(lp3715
S'elbow_pitch_joint'
p3716
aF-0.35792885050664963
aa(lp3717
S'shoulder_pitch_joint'
p3718
aF1.835789973921353
aa(lp3719
S'gripper_roll_joint'
p3720
aF-0.02045307717180855
aa(lp3721
S'shoulder_pan_joint'
p3722
aF-0.08692557798018634
aa(lp3723
S'gripper_grip_joint'
p3724
aF0.015339807878856412
aa(lp3725
S'wrist_roll_joint'
p3726
aF0.18407769454627695
aa(lp3727
S'elbow_roll_joint'
p3728
aF-0.22498384888989406
aa(lp3729
S'wrist_pitch_joint'
p3730
aF-0.5062136600022616
aa(lp3731
S'elbow_pitch_joint'
p3732
aF-0.3425890426277932
aa(lp3733
S'shoulder_pitch_joint'
p3734
aF1.835789973921353
aa(lp3735
S'shoulder_pan_joint'
p3736
aF-0.08692557798018634
aa(lp3737
S'gripper_roll_joint'
p3738
aF-0.02045307717180855
aa(lp3739
S'gripper_grip_joint'
p3740
aF0.010226538585904275
aa(lp3741
S'elbow_roll_joint'
p3742
aF-0.1891909638392291
aa(lp3743
S'wrist_pitch_joint'
p3744
aF-0.5062136600022616
aa(lp3745
S'wrist_roll_joint'
p3746
aF0.18407769454627695
aa(lp3747
S'elbow_pitch_joint'
p3748
aF-0.3272492347489368
aa(lp3749
S'shoulder_pitch_joint'
p3750
aF1.835789973921353
aa(lp3751
S'gripper_roll_joint'
p3752
aF-0.02045307717180855
aa(lp3753
S'gripper_grip_joint'
p3754
aF0.010226538585904275
aa(lp3755
S'shoulder_pan_joint'
p3756
aF-0.08692557798018634
aa(lp3757
S'elbow_roll_joint'
p3758
aF-0.15851134808151626
aa(lp3759
S'wrist_roll_joint'
p3760
aF0.17896442525332482
aa(lp3761
S'elbow_pitch_joint'
p3762
aF-0.3170226961630325
aa(lp3763
S'wrist_pitch_joint'
p3764
aF-0.5011003907093095
aa(lp3765
S'shoulder_pitch_joint'
p3766
aF1.835789973921353
aa(lp3767
S'gripper_roll_joint'
p3768
aF-0.02045307717180855
aa(lp3769
S'shoulder_pan_joint'
p3770
aF-0.0818123086872342
aa(lp3771
S'gripper_grip_joint'
p3772
aF0.010226538585904275
aa(lp3773
S'wrist_pitch_joint'
p3774
aF-0.4959871214163573
aa(lp3775
S'wrist_roll_joint'
p3776
aF0.17385115596037268
aa(lp3777
S'elbow_roll_joint'
p3778
aF-0.1380582709097077
aa(lp3779
S'elbow_pitch_joint'
p3780
aF-0.3119094268700804
aa(lp3781
S'shoulder_pitch_joint'
p3782
aF1.835789973921353
aa(lp3783
S'gripper_roll_joint'
p3784
aF-0.02045307717180855
aa(lp3785
S'shoulder_pan_joint'
p3786
aF-0.08692557798018634
aa(lp3787
S'gripper_grip_joint'
p3788
aF0.010226538585904275
aa(lp3789
S'wrist_roll_joint'
p3790
aF0.17385115596037268
aa(lp3791
S'elbow_pitch_joint'
p3792
aF-0.3119094268700804
aa(lp3793
S'shoulder_pitch_joint'
p3794
aF1.835789973921353
aa(lp3795
S'wrist_pitch_joint'
p3796
aF-0.48064731353750095
aa(lp3797
S'elbow_roll_joint'
p3798
aF-0.10737865515199489
aa(lp3799
S'gripper_roll_joint'
p3800
aF-0.02045307717180855
aa(lp3801
S'shoulder_pan_joint'
p3802
aF-0.08692557798018634
aa(lp3803
S'gripper_grip_joint'
p3804
aF0.010226538585904275
aa(lp3805
S'elbow_pitch_joint'
p3806
aF-0.32213596545598466
aa(lp3807
S'elbow_roll_joint'
p3808
aF-0.08692557798018634
aa(lp3809
S'wrist_pitch_joint'
p3810
aF-0.43974115919388385
aa(lp3811
S'shoulder_pitch_joint'
p3812
aF1.835789973921353
aa(lp3813
S'wrist_roll_joint'
p3814
aF0.16873788666742054
aa(lp3815
S'gripper_roll_joint'
p3816
aF-0.02045307717180855
aa(lp3817
S'shoulder_pan_joint'
p3818
aF-0.08692557798018634
aa(lp3819
S'gripper_grip_joint'
p3820
aF0.010226538585904275
aa(lp3821
S'elbow_roll_joint'
p3822
aF-0.07158577010132992
aa(lp3823
S'elbow_pitch_joint'
p3824
aF-0.3272492347489368
aa(lp3825
S'wrist_roll_joint'
p3826
aF0.1636246173744684
aa(lp3827
S'wrist_pitch_joint'
p3828
aF-0.409061543436171
aa(lp3829
S'shoulder_pitch_joint'
p3830
aF1.835789973921353
aa(lp3831
S'gripper_roll_joint'
p3832
aF-0.015339807878856412
aa(lp3833
S'shoulder_pan_joint'
p3834
aF-0.08692557798018634
aa(lp3835
S'gripper_grip_joint'
p3836
aF0.010226538585904275
aa(lp3837
S'shoulder_pitch_joint'
p3838
aF1.835789973921353
aa(lp3839
S'wrist_pitch_joint'
p3840
aF-0.3681553890925539
aa(lp3841
S'wrist_roll_joint'
p3842
aF0.15339807878856412
aa(lp3843
S'elbow_roll_joint'
p3844
aF-0.06135923151542565
aa(lp3845
S'elbow_pitch_joint'
p3846
aF-0.3272492347489368
aa(lp3847
S'gripper_roll_joint'
p3848
aF-0.02045307717180855
aa(lp3849
S'shoulder_pan_joint'
p3850
aF-0.08692557798018634
aa(lp3851
S'gripper_grip_joint'
p3852
aF0.010226538585904275
aa(lp3853
S'elbow_roll_joint'
p3854
aF-0.056245962222473515
aa(lp3855
S'wrist_roll_joint'
p3856
aF0.14828480949561199
aa(lp3857
S'wrist_pitch_joint'
p3858
aF-0.3425890426277932
aa(lp3859
S'elbow_pitch_joint'
p3860
aF-0.3272492347489368
aa(lp3861
S'shoulder_pitch_joint'
p3862
aF1.835789973921353
aa(lp3863
S'gripper_roll_joint'
p3864
aF-0.02045307717180855
aa(lp3865
S'shoulder_pan_joint'
p3866
aF-0.08692557798018634
aa(lp3867
S'gripper_grip_joint'
p3868
aF0.010226538585904275
aa(lp3869
S'wrist_roll_joint'
p3870
aF0.1380582709097077
aa(lp3871
S'elbow_roll_joint'
p3872
aF-0.056245962222473515
aa(lp3873
S'wrist_pitch_joint'
p3874
aF-0.30679615757712825
aa(lp3875
S'elbow_pitch_joint'
p3876
aF-0.3272492347489368
aa(lp3877
S'shoulder_pitch_joint'
p3878
aF1.835789973921353
aa(lp3879
S'gripper_roll_joint'
p3880
aF-0.02045307717180855
aa(lp3881
S'shoulder_pan_joint'
p3882
aF-0.08692557798018634
aa(lp3883
S'gripper_grip_joint'
p3884
aF0.010226538585904275
aa(lp3885
S'wrist_pitch_joint'
p3886
aF-0.28122981111236756
aa(lp3887
S'wrist_roll_joint'
p3888
aF0.1380582709097077
aa(lp3889
S'elbow_roll_joint'
p3890
aF-0.056245962222473515
aa(lp3891
S'elbow_pitch_joint'
p3892
aF-0.3272492347489368
aa(lp3893
S'shoulder_pitch_joint'
p3894
aF1.835789973921353
aa(lp3895
S'gripper_roll_joint'
p3896
aF-0.02045307717180855
aa(lp3897
S'shoulder_pan_joint'
p3898
aF-0.08692557798018634
aa(lp3899
S'gripper_grip_joint'
p3900
aF0.010226538585904275
aa(lp3901
S'elbow_roll_joint'
p3902
aF-0.06135923151542565
aa(lp3903
S'shoulder_pitch_joint'
p3904
aF1.835789973921353
aa(lp3905
S'wrist_roll_joint'
p3906
aF0.13294500161675557
aa(lp3907
S'wrist_pitch_joint'
p3908
aF-0.2454369260617026
aa(lp3909
S'elbow_pitch_joint'
p3910
aF-0.3272492347489368
aa(lp3911
S'gripper_roll_joint'
p3912
aF-0.02045307717180855
aa(lp3913
S'shoulder_pan_joint'
p3914
aF-0.08692557798018634
aa(lp3915
S'gripper_grip_joint'
p3916
aF0.010226538585904275
aa(lp3917
S'wrist_pitch_joint'
p3918
aF-0.21475731030398978
aa(lp3919
S'wrist_roll_joint'
p3920
aF0.1227184630308513
aa(lp3921
S'elbow_roll_joint'
p3922
aF-0.06135923151542565
aa(lp3923
S'shoulder_pitch_joint'
p3924
aF1.835789973921353
aa(lp3925
S'elbow_pitch_joint'
p3926
aF-0.3272492347489368
aa(lp3927
S'gripper_grip_joint'
p3928
aF0.010226538585904275
aa(lp3929
S'gripper_roll_joint'
p3930
aF-0.02045307717180855
aa(lp3931
S'shoulder_pan_joint'
p3932
aF-0.08692557798018634
aa(lp3933
S'elbow_roll_joint'
p3934
aF-0.06135923151542565
aa(lp3935
S'elbow_pitch_joint'
p3936
aF-0.3272492347489368
aa(lp3937
S'wrist_pitch_joint'
p3938
aF-0.17385115596037268
aa(lp3939
S'wrist_roll_joint'
p3940
aF0.11249192444494703
aa(lp3941
S'shoulder_pitch_joint'
p3942
aF1.835789973921353
aa(lp3943
S'gripper_roll_joint'
p3944
aF-0.02045307717180855
aa(lp3945
S'gripper_grip_joint'
p3946
aF0.010226538585904275
aa(lp3947
S'shoulder_pan_joint'
p3948
aF-0.08692557798018634
aa(lp3949
S'elbow_roll_joint'
p3950
aF-0.06647250080837779
aa(lp3951
S'wrist_roll_joint'
p3952
aF0.09715211656609062
aa(lp3953
S'wrist_pitch_joint'
p3954
aF-0.1380582709097077
aa(lp3955
S'elbow_pitch_joint'
p3956
aF-0.3272492347489368
aa(lp3957
S'shoulder_pitch_joint'
p3958
aF1.835789973921353
aa(lp3959
S'gripper_roll_joint'
p3960
aF-0.02045307717180855
aa(lp3961
S'shoulder_pan_joint'
p3962
aF-0.08692557798018634
aa(lp3963
S'gripper_grip_joint'
p3964
aF0.010226538585904275
aa(lp3965
S'wrist_roll_joint'
p3966
aF0.0818123086872342
aa(lp3967
S'elbow_roll_joint'
p3968
aF-0.07158577010132992
aa(lp3969
S'elbow_pitch_joint'
p3970
aF-0.32213596545598466
aa(lp3971
S'wrist_pitch_joint'
p3972
aF-0.09715211656609062
aa(lp3973
S'shoulder_pitch_joint'
p3974
aF1.835789973921353
aa(lp3975
S'gripper_roll_joint'
p3976
aF-0.02045307717180855
aa(lp3977
S'gripper_grip_joint'
p3978
aF0.010226538585904275
aa(lp3979
S'shoulder_pan_joint'
p3980
aF-0.08692557798018634
aa(lp3981
S'wrist_pitch_joint'
p3982
aF-0.06647250080837779
aa(lp3983
S'elbow_roll_joint'
p3984
aF-0.07669903939428206
aa(lp3985
S'shoulder_pitch_joint'
p3986
aF1.835789973921353
aa(lp3987
S'wrist_roll_joint'
p3988
aF0.06647250080837779
aa(lp3989
S'elbow_pitch_joint'
p3990
aF-0.32213596545598466
aa(lp3991
S'gripper_grip_joint'
p3992
aF0.010226538585904275
aa(lp3993
S'gripper_roll_joint'
p3994
aF-0.010226538585904275
aa(lp3995
S'shoulder_pan_joint'
p3996
aF-0.08692557798018634
aa(lp3997
S'wrist_roll_joint'
p3998
aF0.056245962222473515
aa(lp3999
S'shoulder_pitch_joint'
p4000
aF1.835789973921353
aa(lp4001
S'elbow_pitch_joint'
p4002
aF-0.3272492347489368
aa(lp4003
S'elbow_roll_joint'
p4004
aF-0.07669903939428206
aa(lp4005
S'wrist_pitch_joint'
p4006
aF-0.05113269292952138
aa(lp4007
S'gripper_roll_joint'
p4008
aF-0.0051132692929521375
aa(lp4009
S'shoulder_pan_joint'
p4010
aF-0.0818123086872342
aa(lp4011
S'gripper_grip_joint'
p4012
aF0.010226538585904275
aa(lp4013
S'wrist_pitch_joint'
p4014
aF-0.03579288505066496
aa(lp4015
S'wrist_roll_joint'
p4016
aF0.056245962222473515
aa(lp4017
S'elbow_roll_joint'
p4018
aF-0.07669903939428206
aa(lp4019
S'shoulder_pitch_joint'
p4020
aF1.835789973921353
aa(lp4021
S'elbow_pitch_joint'
p4022
aF-0.3272492347489368
aa(lp4023
S'gripper_grip_joint'
p4024
aF0.0051132692929521375
aa(lp4025
S'shoulder_pan_joint'
p4026
aF-0.08692557798018634
aa(lp4027
S'gripper_roll_joint'
p4028
aF-0.0051132692929521375
aa(lp4029
S'elbow_roll_joint'
p4030
aF-0.07669903939428206
aa(lp4031
S'wrist_pitch_joint'
p4032
aF-0.02045307717180855
aa(lp4033
S'wrist_roll_joint'
p4034
aF0.056245962222473515
aa(lp4035
S'elbow_pitch_joint'
p4036
aF-0.3272492347489368
aa(lp4037
S'shoulder_pitch_joint'
p4038
aF1.835789973921353
aa(lp4039
S'shoulder_pan_joint'
p4040
aF-0.08692557798018634
aa(lp4041
S'gripper_roll_joint'
p4042
aF-0.0051132692929521375
aa(lp4043
S'gripper_grip_joint'
p4044
aF0.0051132692929521375
aa(lp4045
S'shoulder_pitch_joint'
p4046
aF1.835789973921353
aa(lp4047
S'wrist_pitch_joint'
p4048
aF-0.015339807878856412
aa(lp4049
S'wrist_roll_joint'
p4050
aF0.06135923151542565
aa(lp4051
S'elbow_roll_joint'
p4052
aF-0.07158577010132992
aa(lp4053
S'elbow_pitch_joint'
p4054
aF-0.3374757733348411
aa(lp4055
S'gripper_grip_joint'
p4056
aF0.0051132692929521375
aa(lp4057
S'shoulder_pan_joint'
p4058
aF-0.08692557798018634
aa(lp4059
S'gripper_roll_joint'
p4060
aF-0.0051132692929521375
aa(lp4061
S'wrist_pitch_joint'
p4062
aF-0.0051132692929521375
aa(lp4063
S'wrist_roll_joint'
p4064
aF0.06647250080837779
aa(lp4065
S'elbow_roll_joint'
p4066
aF-0.07158577010132992
aa(lp4067
S'shoulder_pitch_joint'
p4068
aF1.835789973921353
aa(lp4069
S'elbow_pitch_joint'
p4070
aF-0.3374757733348411
aa(lp4071
S'shoulder_pan_joint'
p4072
aF-0.08692557798018634
aa(lp4073
S'gripper_roll_joint'
p4074
aF-0.0051132692929521375
aa(lp4075
S'gripper_grip_joint'
p4076
aF0.0051132692929521375
aa(lp4077
S'wrist_roll_joint'
p4078
aF0.06647250080837779
aa(lp4079
S'elbow_pitch_joint'
p4080
aF-0.3374757733348411
aa(lp4081
S'elbow_roll_joint'
p4082
aF-0.07669903939428206
aa(lp4083
S'shoulder_pitch_joint'
p4084
aF1.835789973921353
aa(lp4085
S'wrist_pitch_joint'
p4086
aF-0.010226538585904275
aa(lp4087
S'shoulder_pan_joint'
p4088
aF-0.08692557798018634
aa(lp4089
S'gripper_grip_joint'
p4090
aF0.0051132692929521375
aa(lp4091
S'gripper_roll_joint'
p4092
aF-0.0051132692929521375
aa(lp4093
S'wrist_pitch_joint'
p4094
aF-0.015339807878856412
aa(lp4095
S'wrist_roll_joint'
p4096
aF0.06647250080837779
aa(lp4097
S'elbow_roll_joint'
p4098
aF-0.07669903939428206
aa(lp4099
S'shoulder_pitch_joint'
p4100
aF1.835789973921353
aa(lp4101
S'elbow_pitch_joint'
p4102
aF-0.3374757733348411
aa(lp4103
S'gripper_grip_joint'
p4104
aF0.0051132692929521375
aa(lp4105
S'gripper_roll_joint'
p4106
aF-0.0051132692929521375
aa(lp4107
S'shoulder_pan_joint'
p4108
aF-0.08692557798018634
aa(lp4109
S'elbow_roll_joint'
p4110
aF-0.07669903939428206
aa(lp4111
S'elbow_pitch_joint'
p4112
aF-0.33236250404188894
aa(lp4113
S'wrist_roll_joint'
p4114
aF0.06647250080837779
aa(lp4115
S'wrist_pitch_joint'
p4116
aF-0.015339807878856412
aa(lp4117
S'shoulder_pitch_joint'
p4118
aF1.835789973921353
aa(lp4119
S'gripper_roll_joint'
p4120
aF-0.0051132692929521375
aa(lp4121
S'shoulder_pan_joint'
p4122
aF-0.08692557798018634
aa(lp4123
S'gripper_grip_joint'
p4124
aF0.0051132692929521375
aa(lp4125
S'elbow_roll_joint'
p4126
aF-0.07669903939428206
aa(lp4127
S'shoulder_pitch_joint'
p4128
aF1.835789973921353
aa(lp4129
S'elbow_pitch_joint'
p4130
aF-0.33236250404188894
aa(lp4131
S'wrist_roll_joint'
p4132
aF0.06647250080837779
aa(lp4133
S'wrist_pitch_joint'
p4134
aF-0.02556634646476069
aa(lp4135
S'gripper_roll_joint'
p4136
aF-0.0051132692929521375
aa(lp4137
S'shoulder_pan_joint'
p4138
aF-0.08692557798018634
aa(lp4139
S'gripper_grip_joint'
p4140
aF0.0051132692929521375
aa(lp4141
S'wrist_pitch_joint'
p4142
aF-0.04601942363656924
aa(lp4143
S'wrist_roll_joint'
p4144
aF0.06647250080837779
aa(lp4145
S'elbow_roll_joint'
p4146
aF-0.07669903939428206
aa(lp4147
S'shoulder_pitch_joint'
p4148
aF1.835789973921353
aa(lp4149
S'elbow_pitch_joint'
p4150
aF-0.3272492347489368
aa(lp4151
S'gripper_grip_joint'
p4152
aF0.0051132692929521375
aa(lp4153
S'shoulder_pan_joint'
p4154
aF-0.08692557798018634
aa(lp4155
S'gripper_roll_joint'
p4156
aF-0.0051132692929521375
aa(lp4157
S'elbow_roll_joint'
p4158
aF-0.07669903939428206
aa(lp4159
S'elbow_pitch_joint'
p4160
aF-0.3272492347489368
aa(lp4161
S'shoulder_pitch_joint'
p4162
aF1.835789973921353
aa(lp4163
S'wrist_pitch_joint'
p4164
aF-0.05113269292952138
aa(lp4165
S'wrist_roll_joint'
p4166
aF0.06647250080837779
aa(lp4167
S'shoulder_pan_joint'
p4168
aF-0.08692557798018634
aa(lp4169
S'gripper_grip_joint'
p4170
aF0.0051132692929521375
aa(lp4171
S'gripper_roll_joint'
p4172
aF-0.0051132692929521375
aa(lp4173
S'elbow_pitch_joint'
p4174
aF-0.3272492347489368
aa(lp4175
S'wrist_roll_joint'
p4176
aF0.06647250080837779
aa(lp4177
S'shoulder_pitch_joint'
p4178
aF1.835789973921353
aa(lp4179
S'wrist_pitch_joint'
p4180
aF-0.06647250080837779
aa(lp4181
S'elbow_roll_joint'
p4182
aF-0.07669903939428206
aa(lp4183
S'gripper_roll_joint'
p4184
aF-0.0051132692929521375
aa(lp4185
S'gripper_grip_joint'
p4186
aF0.0051132692929521375
aa(lp4187
S'shoulder_pan_joint'
p4188
aF-0.08692557798018634
aa(lp4189
S'wrist_roll_joint'
p4190
aF0.06647250080837779
aa(lp4191
S'shoulder_pitch_joint'
p4192
aF1.835789973921353
aa(lp4193
S'elbow_pitch_joint'
p4194
aF-0.32213596545598466
aa(lp4195
S'wrist_pitch_joint'
p4196
aF-0.07669903939428206
aa(lp4197
S'elbow_roll_joint'
p4198
aF-0.07669903939428206
aa(lp4199
S'gripper_grip_joint'
p4200
aF0.0051132692929521375
aa(lp4201
S'gripper_roll_joint'
p4202
aF-0.010226538585904275
aa(lp4203
S'shoulder_pan_joint'
p4204
aF-0.08692557798018634
aa(lp4205
S'elbow_roll_joint'
p4206
aF-0.07669903939428206
aa(lp4207
S'wrist_pitch_joint'
p4208
aF-0.08692557798018634
aa(lp4209
S'wrist_roll_joint'
p4210
aF0.06647250080837779
aa(lp4211
S'shoulder_pitch_joint'
p4212
aF1.835789973921353
aa(lp4213
S'elbow_pitch_joint'
p4214
aF-0.32213596545598466
aa(lp4215
S'shoulder_pan_joint'
p4216
aF-0.08692557798018634
aa(lp4217
S'gripper_roll_joint'
p4218
aF-0.010226538585904275
aa(lp4219
S'gripper_grip_joint'
p4220
aF0.0051132692929521375
aa(lp4221
S'elbow_roll_joint'
p4222
aF-0.07158577010132992
aa(lp4223
S'wrist_roll_joint'
p4224
aF0.06647250080837779
aa(lp4225
S'elbow_pitch_joint'
p4226
aF-0.32213596545598466
aa(lp4227
S'shoulder_pitch_joint'
p4228
aF1.835789973921353
aa(lp4229
S'wrist_pitch_joint'
p4230
aF-0.08692557798018634
aa(lp4231
S'gripper_grip_joint'
p4232
aF0.0051132692929521375
aa(lp4233
S'shoulder_pan_joint'
p4234
aF-0.08692557798018634
aa(lp4235
S'gripper_roll_joint'
p4236
aF-0.010226538585904275
aa(lp4237
S'elbow_roll_joint'
p4238
aF-0.07669903939428206
aa(lp4239
S'wrist_pitch_joint'
p4240
aF-0.08692557798018634
aa(lp4241
S'wrist_roll_joint'
p4242
aF0.06647250080837779
aa(lp4243
S'shoulder_pitch_joint'
p4244
aF1.835789973921353
aa(lp4245
S'elbow_pitch_joint'
p4246
aF-0.32213596545598466
aa(lp4247
S'gripper_grip_joint'
p4248
aF0.0051132692929521375
aa(lp4249
S'gripper_roll_joint'
p4250
aF-0.010226538585904275
aa(lp4251
S'shoulder_pan_joint'
p4252
aF-0.08692557798018634
aa(lp4253
S'wrist_pitch_joint'
p4254
aF-0.0818123086872342
aa(lp4255
S'elbow_roll_joint'
p4256
aF-0.07669903939428206
aa(lp4257
S'wrist_roll_joint'
p4258
aF0.06647250080837779
aa(lp4259
S'shoulder_pitch_joint'
p4260
aF1.835789973921353
aa(lp4261
S'elbow_pitch_joint'
p4262
aF-0.32213596545598466
aa(lp4263
S'shoulder_pan_joint'
p4264
aF-0.08692557798018634
aa(lp4265
S'gripper_grip_joint'
p4266
aF0.0051132692929521375
aa(lp4267
S'gripper_roll_joint'
p4268
aF-0.010226538585904275
aa(lp4269
S'elbow_roll_joint'
p4270
aF-0.07158577010132992
aa(lp4271
S'shoulder_pitch_joint'
p4272
aF1.835789973921353
aa(lp4273
S'wrist_roll_joint'
p4274
aF0.06647250080837779
aa(lp4275
S'wrist_pitch_joint'
p4276
aF-0.0818123086872342
aa(lp4277
S'elbow_pitch_joint'
p4278
aF-0.32213596545598466
aa(lp4279
S'shoulder_pan_joint'
p4280
aF-0.08692557798018634
aa(lp4281
S'gripper_roll_joint'
p4282
aF-0.010226538585904275
aa(lp4283
S'gripper_grip_joint'
p4284
aF0.0051132692929521375
aa(lp4285
S'elbow_roll_joint'
p4286
aF-0.07158577010132992
aa(lp4287
S'wrist_pitch_joint'
p4288
aF-0.0818123086872342
aa(lp4289
S'wrist_roll_joint'
p4290
aF0.06647250080837779
aa(lp4291
S'elbow_pitch_joint'
p4292
aF-0.32213596545598466
aa(lp4293
S'shoulder_pitch_joint'
p4294
aF1.835789973921353
aa(lp4295
S'gripper_roll_joint'
p4296
aF-0.010226538585904275
aa(lp4297
S'shoulder_pan_joint'
p4298
aF-0.08692557798018634
aa(lp4299
S'gripper_grip_joint'
p4300
aF0.0051132692929521375
aa(lp4301
S'elbow_roll_joint'
p4302
aF-0.07158577010132992
aa(lp4303
S'wrist_roll_joint'
p4304
aF0.06647250080837779
aa(lp4305
S'wrist_pitch_joint'
p4306
aF-0.0818123086872342
aa(lp4307
S'elbow_pitch_joint'
p4308
aF-0.32213596545598466
aa(lp4309
S'shoulder_pitch_joint'
p4310
aF1.835789973921353
aa(lp4311
S'gripper_roll_joint'
p4312
aF-0.010226538585904275
aa(lp4313
S'shoulder_pan_joint'
p4314
aF-0.08692557798018634
aa(lp4315
S'gripper_grip_joint'
p4316
aF0.0051132692929521375
aa(lp4317
S'wrist_roll_joint'
p4318
aF0.06647250080837779
aa(lp4319
S'shoulder_pitch_joint'
p4320
aF1.835789973921353
aa(lp4321
S'elbow_pitch_joint'
p4322
aF-0.32213596545598466
aa(lp4323
S'wrist_pitch_joint'
p4324
aF-0.0818123086872342
aa(lp4325
S'elbow_roll_joint'
p4326
aF-0.07158577010132992
aa(lp4327
S'gripper_roll_joint'
p4328
aF-0.010226538585904275
aa(lp4329
S'gripper_grip_joint'
p4330
aF0.0051132692929521375
aa(lp4331
S'shoulder_pan_joint'
p4332
aF-0.08692557798018634
aa(lp4333
S'elbow_roll_joint'
p4334
aF-0.07158577010132992
aa(lp4335
S'elbow_pitch_joint'
p4336
aF-0.32213596545598466
aa(lp4337
S'shoulder_pitch_joint'
p4338
aF1.835789973921353
aa(lp4339
S'wrist_roll_joint'
p4340
aF0.06647250080837779
aa(lp4341
S'wrist_pitch_joint'
p4342
aF-0.0818123086872342
aa(lp4343
S'shoulder_pan_joint'
p4344
aF-0.08692557798018634
aa(lp4345
S'gripper_roll_joint'
p4346
aF-0.010226538585904275
aa(lp4347
S'gripper_grip_joint'
p4348
aF0.0051132692929521375
aa(lp4349
S'wrist_roll_joint'
p4350
aF0.06647250080837779
aa(lp4351
S'wrist_pitch_joint'
p4352
aF-0.0818123086872342
aa(lp4353
S'elbow_roll_joint'
p4354
aF-0.07158577010132992
aa(lp4355
S'elbow_pitch_joint'
p4356
aF-0.32213596545598466
aa(lp4357
S'shoulder_pitch_joint'
p4358
aF1.835789973921353
aa(lp4359
S'gripper_roll_joint'
p4360
aF-0.010226538585904275
aa(lp4361
S'gripper_grip_joint'
p4362
aF0.0051132692929521375
aa(lp4363
S'shoulder_pan_joint'
p4364
aF-0.08692557798018634
aa(lp4365
S'wrist_roll_joint'
p4366
aF0.06647250080837779
aa(lp4367
S'wrist_pitch_joint'
p4368
aF-0.0818123086872342
aa(lp4369
S'elbow_roll_joint'
p4370
aF-0.07669903939428206
aa(lp4371
S'elbow_pitch_joint'
p4372
aF-0.32213596545598466
aa(lp4373
S'shoulder_pitch_joint'
p4374
aF1.835789973921353
aa(lp4375
S'gripper_roll_joint'
p4376
aF-0.010226538585904275
aa(lp4377
S'gripper_grip_joint'
p4378
aF0.0051132692929521375
aa(lp4379
S'shoulder_pan_joint'
p4380
aF-0.08692557798018634
aa(lp4381
S'wrist_pitch_joint'
p4382
aF-0.0818123086872342
aa(lp4383
S'elbow_roll_joint'
p4384
aF-0.07669903939428206
aa(lp4385
S'wrist_roll_joint'
p4386
aF0.06647250080837779
aa(lp4387
S'elbow_pitch_joint'
p4388
aF-0.32213596545598466
aa(lp4389
S'shoulder_pitch_joint'
p4390
aF1.835789973921353
aa(lp4391
S'shoulder_pan_joint'
p4392
aF-0.08692557798018634
aa(lp4393
S'gripper_roll_joint'
p4394
aF-0.010226538585904275
aa(lp4395
S'gripper_grip_joint'
p4396
aF0.0051132692929521375
aa(lp4397
S'wrist_roll_joint'
p4398
aF0.06647250080837779
aa(lp4399
S'shoulder_pitch_joint'
p4400
aF1.835789973921353
aa(lp4401
S'elbow_roll_joint'
p4402
aF-0.07669903939428206
aa(lp4403
S'wrist_pitch_joint'
p4404
aF-0.0818123086872342
aa(lp4405
S'elbow_pitch_joint'
p4406
aF-0.32213596545598466
aa(lp4407
S'gripper_roll_joint'
p4408
aF-0.010226538585904275
aa(lp4409
S'shoulder_pan_joint'
p4410
aF-0.08692557798018634
aa(lp4411
S'gripper_grip_joint'
p4412
aF0.0051132692929521375
aa(lp4413
S'elbow_roll_joint'
p4414
aF-0.07158577010132992
aa(lp4415
S'wrist_pitch_joint'
p4416
aF-0.0818123086872342
aa(lp4417
S'elbow_pitch_joint'
p4418
aF-0.32213596545598466
aa(lp4419
S'wrist_roll_joint'
p4420
aF0.06647250080837779
aa(lp4421
S'shoulder_pitch_joint'
p4422
aF1.835789973921353
aa(lp4423
S'gripper_roll_joint'
p4424
aF-0.010226538585904275
aa(lp4425
S'shoulder_pan_joint'
p4426
aF-0.08692557798018634
aa(lp4427
S'gripper_grip_joint'
p4428
aF0.0051132692929521375
aa(lp4429
S'wrist_pitch_joint'
p4430
aF-0.0818123086872342
aa(lp4431
S'shoulder_pitch_joint'
p4432
aF1.835789973921353
aa(lp4433
S'wrist_roll_joint'
p4434
aF0.06647250080837779
aa(lp4435
S'elbow_roll_joint'
p4436
aF-0.07158577010132992
aa(lp4437
S'elbow_pitch_joint'
p4438
aF-0.32213596545598466
aa(lp4439
S'gripper_roll_joint'
p4440
aF-0.010226538585904275
aa(lp4441
S'shoulder_pan_joint'
p4442
aF-0.08692557798018634
aa(lp4443
S'gripper_grip_joint'
p4444
aF0.0051132692929521375
aa(lp4445
S'elbow_roll_joint'
p4446
aF-0.07669903939428206
aa(lp4447
S'shoulder_pitch_joint'
p4448
aF1.835789973921353
aa(lp4449
S'elbow_pitch_joint'
p4450
aF-0.32213596545598466
aa(lp4451
S'wrist_roll_joint'
p4452
aF0.06647250080837779
aa(lp4453
S'wrist_pitch_joint'
p4454
aF-0.0818123086872342
aa(lp4455
S'gripper_roll_joint'
p4456
aF-0.010226538585904275
aa(lp4457
S'shoulder_pan_joint'
p4458
aF-0.08692557798018634
aa(lp4459
S'gripper_grip_joint'
p4460
aF0.0051132692929521375
aa(lp4461
S'wrist_roll_joint'
p4462
aF0.06647250080837779
aa(lp4463
S'wrist_pitch_joint'
p4464
aF-0.0818123086872342
aa(lp4465
S'elbow_roll_joint'
p4466
aF-0.07669903939428206
aa(lp4467
S'shoulder_pitch_joint'
p4468
aF1.835789973921353
aa(lp4469
S'elbow_pitch_joint'
p4470
aF-0.32213596545598466
aa(lp4471
S'gripper_grip_joint'
p4472
aF0.0051132692929521375
aa(lp4473
S'gripper_roll_joint'
p4474
aF-0.010226538585904275
aa(lp4475
S'shoulder_pan_joint'
p4476
aF-0.08692557798018634
aa(lp4477
S'wrist_pitch_joint'
p4478
aF-0.0818123086872342
aa(lp4479
S'elbow_pitch_joint'
p4480
aF-0.32213596545598466
aa(lp4481
S'shoulder_pitch_joint'
p4482
aF1.835789973921353
aa(lp4483
S'wrist_roll_joint'
p4484
aF0.06647250080837779
aa(lp4485
S'elbow_roll_joint'
p4486
aF-0.07669903939428206
aa(lp4487
S'gripper_roll_joint'
p4488
aF-0.010226538585904275
aa(lp4489
S'gripper_grip_joint'
p4490
aF0.0051132692929521375
aa(lp4491
S'shoulder_pan_joint'
p4492
aF-0.08692557798018634
aa(lp4493
S'wrist_pitch_joint'
p4494
aF-0.0818123086872342
aa(lp4495
S'wrist_roll_joint'
p4496
aF0.06647250080837779
aa(lp4497
S'shoulder_pitch_joint'
p4498
aF1.835789973921353
aa(lp4499
S'elbow_roll_joint'
p4500
aF-0.07669903939428206
aa(lp4501
S'elbow_pitch_joint'
p4502
aF-0.32213596545598466
aa(lp4503
S'gripper_roll_joint'
p4504
aF-0.010226538585904275
aa(lp4505
S'gripper_grip_joint'
p4506
aF0.0051132692929521375
aa(lp4507
S'shoulder_pan_joint'
p4508
aF-0.08692557798018634
aa(lp4509
S'elbow_pitch_joint'
p4510
aF-0.32213596545598466
aa(lp4511
S'elbow_roll_joint'
p4512
aF-0.07669903939428206
aa(lp4513
S'wrist_pitch_joint'
p4514
aF-0.0818123086872342
aa(lp4515
S'wrist_roll_joint'
p4516
aF0.06647250080837779
aa(lp4517
S'shoulder_pitch_joint'
p4518
aF1.835789973921353
aa(lp4519
S'gripper_roll_joint'
p4520
aF-0.010226538585904275
aa(lp4521
S'shoulder_pan_joint'
p4522
aF-0.08692557798018634
aa(lp4523
S'gripper_grip_joint'
p4524
aF0.0051132692929521375
aa(lp4525
S'elbow_roll_joint'
p4526
aF-0.07669903939428206
aa(lp4527
S'wrist_roll_joint'
p4528
aF0.06647250080837779
aa(lp4529
S'wrist_pitch_joint'
p4530
aF-0.0818123086872342
aa(lp4531
S'shoulder_pitch_joint'
p4532
aF1.835789973921353
aa(lp4533
S'elbow_pitch_joint'
p4534
aF-0.32213596545598466
aa(lp4535
S'gripper_roll_joint'
p4536
aF-0.010226538585904275
aa(lp4537
S'gripper_grip_joint'
p4538
aF0.0051132692929521375
aa(lp4539
S'shoulder_pan_joint'
p4540
aF-0.08692557798018634
aa(lp4541
S'elbow_roll_joint'
p4542
aF-0.07158577010132992
aa(lp4543
S'elbow_pitch_joint'
p4544
aF-0.32213596545598466
aa(lp4545
S'wrist_roll_joint'
p4546
aF0.06647250080837779
aa(lp4547
S'wrist_pitch_joint'
p4548
aF-0.0818123086872342
aa(lp4549
S'shoulder_pitch_joint'
p4550
aF1.835789973921353
aa(lp4551
S'gripper_roll_joint'
p4552
aF-0.010226538585904275
aa(lp4553
S'shoulder_pan_joint'
p4554
aF-0.08692557798018634
aa(lp4555
S'gripper_grip_joint'
p4556
aF0.0051132692929521375
aa(lp4557
S'wrist_roll_joint'
p4558
aF0.06647250080837779
aa(lp4559
S'wrist_pitch_joint'
p4560
aF-0.0818123086872342
aa(lp4561
S'shoulder_pitch_joint'
p4562
aF1.835789973921353
aa(lp4563
S'elbow_roll_joint'
p4564
aF-0.07158577010132992
aa(lp4565
S'elbow_pitch_joint'
p4566
aF-0.32213596545598466
aa(lp4567
S'gripper_roll_joint'
p4568
aF-0.010226538585904275
aa(lp4569
S'gripper_grip_joint'
p4570
aF0.0051132692929521375
aa(lp4571
S'shoulder_pan_joint'
p4572
aF-0.08692557798018634
aa(lp4573
S'wrist_pitch_joint'
p4574
aF-0.0818123086872342
aa(lp4575
S'wrist_roll_joint'
p4576
aF0.06647250080837779
aa(lp4577
S'shoulder_pitch_joint'
p4578
aF1.835789973921353
aa(lp4579
S'elbow_roll_joint'
p4580
aF-0.07158577010132992
aa(lp4581
S'elbow_pitch_joint'
p4582
aF-0.32213596545598466
aa(lp4583
S'shoulder_pan_joint'
p4584
aF-0.08692557798018634
aa(lp4585
S'gripper_roll_joint'
p4586
aF-0.010226538585904275
aa(lp4587
S'gripper_grip_joint'
p4588
aF0.0051132692929521375
aa(lp4589
S'elbow_pitch_joint'
p4590
aF-0.32213596545598466
aa(lp4591
S'elbow_roll_joint'
p4592
aF-0.07158577010132992
aa(lp4593
S'wrist_pitch_joint'
p4594
aF-0.0818123086872342
aa(lp4595
S'wrist_roll_joint'
p4596
aF0.06647250080837779
aa(lp4597
S'shoulder_pitch_joint'
p4598
aF1.835789973921353
aa(lp4599
S'gripper_grip_joint'
p4600
aF0.0051132692929521375
aa(lp4601
S'gripper_roll_joint'
p4602
aF-0.010226538585904275
aa(lp4603
S'shoulder_pan_joint'
p4604
aF-0.08692557798018634
aa(lp4605
S'elbow_roll_joint'
p4606
aF-0.07158577010132992
aa(lp4607
S'shoulder_pitch_joint'
p4608
aF1.835789973921353
aa(lp4609
S'wrist_roll_joint'
p4610
aF0.06647250080837779
aa(lp4611
S'elbow_pitch_joint'
p4612
aF-0.32213596545598466
aa(lp4613
S'wrist_pitch_joint'
p4614
aF-0.0818123086872342
aa(lp4615
S'gripper_roll_joint'
p4616
aF-0.010226538585904275
aa(lp4617
S'shoulder_pan_joint'
p4618
aF-0.08692557798018634
aa(lp4619
S'gripper_grip_joint'
p4620
aF0.0
aa(lp4621
S'shoulder_pitch_joint'
p4622
aF1.835789973921353
aa(lp4623
S'wrist_roll_joint'
p4624
aF0.06647250080837779
aa(lp4625
S'elbow_pitch_joint'
p4626
aF-0.32213596545598466
aa(lp4627
S'elbow_roll_joint'
p4628
aF-0.07669903939428206
aa(lp4629
S'wrist_pitch_joint'
p4630
aF-0.0818123086872342
aa(lp4631
S'gripper_roll_joint'
p4632
aF-0.010226538585904275
aa(lp4633
S'shoulder_pan_joint'
p4634
aF-0.08692557798018634
aa(lp4635
S'gripper_grip_joint'
p4636
aF0.0051132692929521375
aa(lp4637
S'wrist_roll_joint'
p4638
aF0.06647250080837779
aa(lp4639
S'elbow_pitch_joint'
p4640
aF-0.32213596545598466
aa(lp4641
S'shoulder_pitch_joint'
p4642
aF1.835789973921353
aa(lp4643
S'elbow_roll_joint'
p4644
aF-0.07158577010132992
aa(lp4645
S'wrist_pitch_joint'
p4646
aF-0.0818123086872342
aa(lp4647
S'shoulder_pan_joint'
p4648
aF-0.08692557798018634
aa(lp4649
S'gripper_roll_joint'
p4650
aF-0.010226538585904275
aa(lp4651
S'gripper_grip_joint'
p4652
aF0.0051132692929521375
aa(lp4653
S'elbow_roll_joint'
p4654
aF-0.07158577010132992
aa(lp4655
S'wrist_roll_joint'
p4656
aF0.06647250080837779
aa(lp4657
S'wrist_pitch_joint'
p4658
aF-0.0818123086872342
aa(lp4659
S'elbow_pitch_joint'
p4660
aF-0.32213596545598466
aa(lp4661
S'shoulder_pitch_joint'
p4662
aF1.835789973921353
aa(lp4663
S'gripper_grip_joint'
p4664
aF0.0051132692929521375
aa(lp4665
S'gripper_roll_joint'
p4666
aF-0.010226538585904275
aa(lp4667
S'shoulder_pan_joint'
p4668
aF-0.08692557798018634
aa(lp4669
S'elbow_roll_joint'
p4670
aF-0.07669903939428206
aa(lp4671
S'wrist_pitch_joint'
p4672
aF-0.0818123086872342
aa(lp4673
S'shoulder_pitch_joint'
p4674
aF1.835789973921353
aa(lp4675
S'elbow_pitch_joint'
p4676
aF-0.32213596545598466
aa(lp4677
S'wrist_roll_joint'
p4678
aF0.06647250080837779
aa(lp4679
S'shoulder_pan_joint'
p4680
aF-0.08692557798018634
aa(lp4681
S'gripper_grip_joint'
p4682
aF0.0051132692929521375
aa(lp4683
S'gripper_roll_joint'
p4684
aF-0.010226538585904275
aa(lp4685
S'elbow_roll_joint'
p4686
aF-0.07158577010132992
aa(lp4687
S'shoulder_pitch_joint'
p4688
aF1.835789973921353
aa(lp4689
S'wrist_roll_joint'
p4690
aF0.06647250080837779
aa(lp4691
S'wrist_pitch_joint'
p4692
aF-0.0818123086872342
aa(lp4693
S'elbow_pitch_joint'
p4694
aF-0.32213596545598466
aa(lp4695
S'gripper_roll_joint'
p4696
aF-0.010226538585904275
aa(lp4697
S'gripper_grip_joint'
p4698
aF0.0051132692929521375
aa(lp4699
S'shoulder_pan_joint'
p4700
aF-0.08692557798018634
aa(lp4701
S'elbow_roll_joint'
p4702
aF-0.07158577010132992
aa(lp4703
S'elbow_pitch_joint'
p4704
aF-0.32213596545598466
aa(lp4705
S'wrist_pitch_joint'
p4706
aF-0.0818123086872342
aa(lp4707
S'wrist_roll_joint'
p4708
aF0.06647250080837779
aa(lp4709
S'shoulder_pitch_joint'
p4710
aF1.835789973921353
aa(lp4711
S'shoulder_pan_joint'
p4712
aF-0.08692557798018634
aa(lp4713
S'gripper_roll_joint'
p4714
aF-0.010226538585904275
aa(lp4715
S'gripper_grip_joint'
p4716
aF0.0051132692929521375
aa(lp4717
S'elbow_roll_joint'
p4718
aF-0.07158577010132992
aa(lp4719
S'wrist_pitch_joint'
p4720
aF-0.0818123086872342
aa(lp4721
S'shoulder_pitch_joint'
p4722
aF1.835789973921353
aa(lp4723
S'wrist_roll_joint'
p4724
aF0.06647250080837779
aa(lp4725
S'elbow_pitch_joint'
p4726
aF-0.32213596545598466
aa(lp4727
S'gripper_grip_joint'
p4728
aF0.0051132692929521375
aa(lp4729
S'shoulder_pan_joint'
p4730
aF-0.08692557798018634
aa(lp4731
S'gripper_roll_joint'
p4732
aF-0.010226538585904275
aa(lp4733
S'elbow_pitch_joint'
p4734
aF-0.32213596545598466
aa(lp4735
S'wrist_pitch_joint'
p4736
aF-0.0818123086872342
aa(lp4737
S'wrist_roll_joint'
p4738
aF0.06647250080837779
aa(lp4739
S'shoulder_pitch_joint'
p4740
aF1.835789973921353
aa(lp4741
S'elbow_roll_joint'
p4742
aF-0.07669903939428206
aa(lp4743
S'gripper_roll_joint'
p4744
aF-0.010226538585904275
aa(lp4745
S'shoulder_pan_joint'
p4746
aF-0.08692557798018634
aa(lp4747
S'gripper_grip_joint'
p4748
aF0.0051132692929521375
aa(lp4749
S'wrist_roll_joint'
p4750
aF0.06647250080837779
aa(lp4751
S'shoulder_pitch_joint'
p4752
aF1.835789973921353
aa(lp4753
S'elbow_pitch_joint'
p4754
aF-0.32213596545598466
aa(lp4755
S'wrist_pitch_joint'
p4756
aF-0.0818123086872342
aa(lp4757
S'elbow_roll_joint'
p4758
aF-0.07669903939428206
aa(lp4759
S'shoulder_pan_joint'
p4760
aF-0.08692557798018634
aa(lp4761
S'gripper_grip_joint'
p4762
aF0.0051132692929521375
aa(lp4763
S'gripper_roll_joint'
p4764
aF-0.010226538585904275
aa(lp4765
S'elbow_pitch_joint'
p4766
aF-0.32213596545598466
aa(lp4767
S'shoulder_pitch_joint'
p4768
aF1.835789973921353
aa(lp4769
S'wrist_roll_joint'
p4770
aF0.06647250080837779
aa(lp4771
S'elbow_roll_joint'
p4772
aF-0.07669903939428206
aa(lp4773
S'wrist_pitch_joint'
p4774
aF-0.0818123086872342
aa(lp4775
S'gripper_grip_joint'
p4776
aF0.0051132692929521375
aa(lp4777
S'gripper_roll_joint'
p4778
aF-0.010226538585904275
aa(lp4779
S'shoulder_pan_joint'
p4780
aF-0.08692557798018634
aa(lp4781
S'wrist_roll_joint'
p4782
aF0.06647250080837779
aa(lp4783
S'wrist_pitch_joint'
p4784
aF-0.0818123086872342
aa(lp4785
S'elbow_roll_joint'
p4786
aF-0.07669903939428206
aa(lp4787
S'shoulder_pitch_joint'
p4788
aF1.835789973921353
aa(lp4789
S'elbow_pitch_joint'
p4790
aF-0.32213596545598466
aa(lp4791
S'gripper_roll_joint'
p4792
aF-0.010226538585904275
aa(lp4793
S'shoulder_pan_joint'
p4794
aF-0.08692557798018634
aa(lp4795
S'gripper_grip_joint'
p4796
aF0.0051132692929521375
aa(lp4797
S'wrist_pitch_joint'
p4798
aF-0.0818123086872342
aa(lp4799
S'wrist_roll_joint'
p4800
aF0.06647250080837779
aa(lp4801
S'elbow_roll_joint'
p4802
aF-0.07669903939428206
aa(lp4803
S'shoulder_pitch_joint'
p4804
aF1.835789973921353
aa(lp4805
S'elbow_pitch_joint'
p4806
aF-0.32213596545598466
aa(lp4807
S'gripper_grip_joint'
p4808
aF0.0051132692929521375
aa(lp4809
S'shoulder_pan_joint'
p4810
aF-0.08692557798018634
aa(lp4811
S'gripper_roll_joint'
p4812
aF-0.010226538585904275
aa(lp4813
S'wrist_pitch_joint'
p4814
aF-0.0818123086872342
aa(lp4815
S'shoulder_pitch_joint'
p4816
aF1.835789973921353
aa(lp4817
S'elbow_roll_joint'
p4818
aF-0.07158577010132992
aa(lp4819
S'elbow_pitch_joint'
p4820
aF-0.32213596545598466
aa(lp4821
S'wrist_roll_joint'
p4822
aF0.06647250080837779
aa(lp4823
S'gripper_roll_joint'
p4824
aF-0.010226538585904275
aa(lp4825
S'shoulder_pan_joint'
p4826
aF-0.08692557798018634
aa(lp4827
S'gripper_grip_joint'
p4828
aF0.0
aa(lp4829
S'elbow_roll_joint'
p4830
aF-0.07158577010132992
aa(lp4831
S'wrist_roll_joint'
p4832
aF0.06647250080837779
aa(lp4833
S'shoulder_pitch_joint'
p4834
aF1.835789973921353
aa(lp4835
S'wrist_pitch_joint'
p4836
aF-0.0818123086872342
aa(lp4837
S'elbow_pitch_joint'
p4838
aF-0.32213596545598466
aa(lp4839
S'gripper_roll_joint'
p4840
aF-0.010226538585904275
aa(lp4841
S'shoulder_pan_joint'
p4842
aF-0.08692557798018634
aa(lp4843
S'gripper_grip_joint'
p4844
aF0.0
aa(lp4845
S'elbow_roll_joint'
p4846
aF-0.07669903939428206
aa(lp4847
S'wrist_roll_joint'
p4848
aF0.06647250080837779
aa(lp4849
S'wrist_pitch_joint'
p4850
aF-0.0818123086872342
aa(lp4851
S'shoulder_pitch_joint'
p4852
aF1.835789973921353
aa(lp4853
S'elbow_pitch_joint'
p4854
aF-0.32213596545598466
aa(lp4855
S'gripper_roll_joint'
p4856
aF-0.010226538585904275
aa(lp4857
S'gripper_grip_joint'
p4858
aF0.0
aa(lp4859
S'shoulder_pan_joint'
p4860
aF-0.08692557798018634
aa(lp4861
S'elbow_roll_joint'
p4862
aF-0.07669903939428206
aa(lp4863
S'wrist_pitch_joint'
p4864
aF-0.0818123086872342
aa(lp4865
S'elbow_pitch_joint'
p4866
aF-0.32213596545598466
aa(lp4867
S'wrist_roll_joint'
p4868
aF0.06647250080837779
aa(lp4869
S'shoulder_pitch_joint'
p4870
aF1.835789973921353
aa(lp4871
S'gripper_roll_joint'
p4872
aF-0.010226538585904275
aa(lp4873
S'gripper_grip_joint'
p4874
aF0.0051132692929521375
aa(lp4875
S'shoulder_pan_joint'
p4876
aF-0.08692557798018634
aa(lp4877
S'elbow_roll_joint'
p4878
aF-0.07669903939428206
aa(lp4879
S'wrist_pitch_joint'
p4880
aF-0.0818123086872342
aa(lp4881
S'elbow_pitch_joint'
p4882
aF-0.32213596545598466
aa(lp4883
S'shoulder_pitch_joint'
p4884
aF1.835789973921353
aa(lp4885
S'wrist_roll_joint'
p4886
aF0.06647250080837779
aa(lp4887
S'gripper_roll_joint'
p4888
aF-0.010226538585904275
aa(lp4889
S'gripper_grip_joint'
p4890
aF0.0
aa(lp4891
S'shoulder_pan_joint'
p4892
aF-0.08692557798018634
aa(lp4893
S'elbow_roll_joint'
p4894
aF-0.07158577010132992
aa(lp4895
S'wrist_pitch_joint'
p4896
aF-0.0818123086872342
aa(lp4897
S'wrist_roll_joint'
p4898
aF0.06647250080837779
aa(lp4899
S'shoulder_pitch_joint'
p4900
aF1.835789973921353
aa(lp4901
S'elbow_pitch_joint'
p4902
aF-0.32213596545598466
aa(lp4903
S'gripper_roll_joint'
p4904
aF-0.010226538585904275
aa(lp4905
S'gripper_grip_joint'
p4906
aF0.0
aa(lp4907
S'shoulder_pan_joint'
p4908
aF-0.08692557798018634
aa(lp4909
S'elbow_roll_joint'
p4910
aF-0.07158577010132992
aa(lp4911
S'shoulder_pitch_joint'
p4912
aF1.835789973921353
aa(lp4913
S'elbow_pitch_joint'
p4914
aF-0.32213596545598466
aa(lp4915
S'wrist_pitch_joint'
p4916
aF-0.0818123086872342
aa(lp4917
S'wrist_roll_joint'
p4918
aF0.06647250080837779
aa(lp4919
S'gripper_grip_joint'
p4920
aF0.0051132692929521375
aa(lp4921
S'gripper_roll_joint'
p4922
aF-0.010226538585904275
aa(lp4923
S'shoulder_pan_joint'
p4924
aF-0.08692557798018634
aa(lp4925
S'elbow_roll_joint'
p4926
aF-0.07669903939428206
aa(lp4927
S'shoulder_pitch_joint'
p4928
aF1.835789973921353
aa(lp4929
S'wrist_pitch_joint'
p4930
aF-0.0818123086872342
aa(lp4931
S'elbow_pitch_joint'
p4932
aF-0.32213596545598466
aa(lp4933
S'wrist_roll_joint'
p4934
aF0.06647250080837779
aa(lp4935
S'shoulder_pan_joint'
p4936
aF-0.08692557798018634
aa(lp4937
S'gripper_roll_joint'
p4938
aF-0.010226538585904275
aa(lp4939
S'gripper_grip_joint'
p4940
aF0.0051132692929521375
aa(lp4941
S'shoulder_pitch_joint'
p4942
aF1.835789973921353
aa(lp4943
S'wrist_roll_joint'
p4944
aF0.06647250080837779
aa(lp4945
S'elbow_pitch_joint'
p4946
aF-0.32213596545598466
aa(lp4947
S'elbow_roll_joint'
p4948
aF-0.07669903939428206
aa(lp4949
S'wrist_pitch_joint'
p4950
aF-0.0818123086872342
aa(lp4951
S'shoulder_pan_joint'
p4952
aF-0.08692557798018634
aa(lp4953
S'gripper_roll_joint'
p4954
aF-0.010226538585904275
aa(lp4955
S'gripper_grip_joint'
p4956
aF0.0051132692929521375
aa(lp4957
S'elbow_roll_joint'
p4958
aF-0.07669903939428206
aa(lp4959
S'shoulder_pitch_joint'
p4960
aF1.835789973921353
aa(lp4961
S'wrist_roll_joint'
p4962
aF0.06647250080837779
aa(lp4963
S'elbow_pitch_joint'
p4964
aF-0.32213596545598466
aa(lp4965
S'wrist_pitch_joint'
p4966
aF-0.0818123086872342
aa(lp4967
S'gripper_roll_joint'
p4968
aF-0.010226538585904275
aa(lp4969
S'shoulder_pan_joint'
p4970
aF-0.08692557798018634
aa(lp4971
S'gripper_grip_joint'
p4972
aF0.0051132692929521375
aa(lp4973
S'elbow_roll_joint'
p4974
aF-0.07158577010132992
aa(lp4975
S'shoulder_pitch_joint'
p4976
aF1.835789973921353
aa(lp4977
S'wrist_pitch_joint'
p4978
aF-0.0818123086872342
aa(lp4979
S'elbow_pitch_joint'
p4980
aF-0.32213596545598466
aa(lp4981
S'wrist_roll_joint'
p4982
aF0.06647250080837779
aa(lp4983
S'gripper_roll_joint'
p4984
aF-0.010226538585904275
aa(lp4985
S'gripper_grip_joint'
p4986
aF0.0051132692929521375
aa(lp4987
S'shoulder_pan_joint'
p4988
aF-0.08692557798018634
aa(lp4989
S'shoulder_pitch_joint'
p4990
aF1.835789973921353
aa(lp4991
S'wrist_pitch_joint'
p4992
aF-0.0818123086872342
aa(lp4993
S'wrist_roll_joint'
p4994
aF0.06647250080837779
aa(lp4995
S'elbow_pitch_joint'
p4996
aF-0.32213596545598466
aa(lp4997
S'elbow_roll_joint'
p4998
aF-0.07158577010132992
aa(lp4999
S'shoulder_pan_joint'
p5000
aF-0.08692557798018634
aa(lp5001
S'gripper_grip_joint'
p5002
aF0.0051132692929521375
aa(lp5003
S'gripper_roll_joint'
p5004
aF-0.010226538585904275
aa(lp5005
S'wrist_pitch_joint'
p5006
aF-0.0818123086872342
aa(lp5007
S'wrist_roll_joint'
p5008
aF0.06647250080837779
aa(lp5009
S'elbow_pitch_joint'
p5010
aF-0.32213596545598466
aa(lp5011
S'shoulder_pitch_joint'
p5012
aF1.835789973921353
aa(lp5013
S'elbow_roll_joint'
p5014
aF-0.07669903939428206
aa(lp5015
S'shoulder_pan_joint'
p5016
aF-0.08692557798018634
aa(lp5017
S'gripper_roll_joint'
p5018
aF-0.010226538585904275
aa(lp5019
S'gripper_grip_joint'
p5020
aF0.0
aa(lp5021
S'wrist_pitch_joint'
p5022
aF-0.0818123086872342
aa(lp5023
S'wrist_roll_joint'
p5024
aF0.06647250080837779
aa(lp5025
S'elbow_roll_joint'
p5026
aF-0.07158577010132992
aa(lp5027
S'shoulder_pitch_joint'
p5028
aF1.835789973921353
aa(lp5029
S'elbow_pitch_joint'
p5030
aF-0.32213596545598466
aa(lp5031
S'shoulder_pan_joint'
p5032
aF-0.08692557798018634
aa(lp5033
S'gripper_roll_joint'
p5034
aF-0.010226538585904275
aa(lp5035
S'gripper_grip_joint'
p5036
aF0.0051132692929521375
aa(lp5037
S'elbow_pitch_joint'
p5038
aF-0.32213596545598466
aa(lp5039
S'elbow_roll_joint'
p5040
aF-0.07669903939428206
aa(lp5041
S'wrist_roll_joint'
p5042
aF0.06647250080837779
aa(lp5043
S'wrist_pitch_joint'
p5044
aF-0.0818123086872342
aa(lp5045
S'shoulder_pitch_joint'
p5046
aF1.835789973921353
aa(lp5047
S'shoulder_pan_joint'
p5048
aF-0.08692557798018634
aa(lp5049
S'gripper_roll_joint'
p5050
aF-0.010226538585904275
aa(lp5051
S'gripper_grip_joint'
p5052
aF0.0051132692929521375
aa.