(lp0
(lp1
I1
aF1.8229597586114779
aa(lp2
I3
aF-0.26589000323351114
aa(lp3
I2
aF0.056245962222473515
aa(lp4
I5
aF-0.08692557798018634
aa(lp5
I4
aF-0.15851134808151626
aa(lp6
I0
aF0.0
aa(lp7
I7
aF-0.6902913545485385
aa(lp8
I6
aF-0.11249192444494703
aa(lp9
I1
aF1.8229597586114779
aa(lp10
I2
aF0.056245962222473515
aa(lp11
I3
aF-0.26589000323351114
aa(lp12
I4
aF-0.15851134808151626
aa(lp13
I5
aF-0.08692557798018634
aa(lp14
I0
aF0.0
aa(lp15
I6
aF-0.11249192444494703
aa(lp16
I7
aF-0.6902913545485385
aa(lp17
I1
aF1.8229597586114779
aa(lp18
I2
aF0.056245962222473515
aa(lp19
I3
aF-0.26589000323351114
aa(lp20
I4
aF-0.15851134808151626
aa(lp21
I5
aF-0.08692557798018634
aa(lp22
I0
aF0.0
aa(lp23
I6
aF-0.10737865515199489
aa(lp24
I7
aF-0.6902913545485385
aa(lp25
I1
aF1.8229597586114779
aa(lp26
I2
aF0.056245962222473515
aa(lp27
I3
aF-0.26589000323351114
aa(lp28
I4
aF-0.15851134808151626
aa(lp29
I5
aF-0.08692557798018634
aa(lp30
I0
aF0.0
aa(lp31
I6
aF-0.11249192444494703
aa(lp32
I7
aF-0.6902913545485385
aa(lp33
I1
aF1.8229597586114779
aa(lp34
I2
aF0.056245962222473515
aa(lp35
I3
aF-0.26589000323351114
aa(lp36
I4
aF-0.15851134808151626
aa(lp37
I5
aF-0.08692557798018634
aa(lp38
I0
aF0.0
aa(lp39
I6
aF-0.10737865515199489
aa(lp40
I7
aF-0.6902913545485385
aa(lp41
I1
aF1.8229597586114779
aa(lp42
I3
aF-0.26589000323351114
aa(lp43
I2
aF0.06135923151542565
aa(lp44
I4
aF-0.15339807878856412
aa(lp45
I5
aF-0.14828480949561199
aa(lp46
I0
aF0.0
aa(lp47
I6
aF-0.11249192444494703
aa(lp48
I7
aF-0.6851780852555864
aa(lp49
I1
aF1.8229597586114779
aa(lp50
I2
aF0.0051132692929521375
aa(lp51
I3
aF-0.7005178931344428
aa(lp52
I4
aF-0.1891909638392291
aa(lp53
I5
aF-0.15851134808151626
aa(lp54
I0
aF0.0051132692929521375
aa(lp55
I6
aF-0.11249192444494703
aa(lp56
I7
aF-0.6544984694978736
aa(lp57
I1
aF1.5834624061604683
aa(lp58
I2
aF-0.15851134808151626
aa(lp59
I4
aF-0.14828480949561199
aa(lp60
I3
aF-0.9306150113172891
aa(lp61
I5
aF0.21475731030398978
aa(lp62
I0
aF0.030679615757712823
aa(lp63
I6
aF-0.10737865515199489
aa(lp64
I7
aF-0.6544984694978736
aa(lp65
I1
aF1.0232096709625713
aa(lp66
I2
aF-0.030679615757712823
aa(lp67
I3
aF-0.7465373167710121
aa(lp68
I4
aF0.2454369260617026
aa(lp69
I5
aF0.634045392326065
aa(lp70
I0
aF-0.010226538585904275
aa(lp71
I6
aF-0.1380582709097077
aa(lp72
I7
aF-0.6493852002049215
aa(lp73
I1
aF0.7398757495361541
aa(lp74
I2
aF0.29145634969827183
aa(lp75
I3
aF-0.9459548191961454
aa(lp76
I5
aF1.2885438618239387
aa(lp77
I4
aF0.2505501953546547
aa(lp78
I0
aF-0.11249192444494703
aa(lp79
I6
aF-0.2505501953546547
aa(lp80
I7
aF-0.6544984694978736
aa(lp81
I1
aF0.5452841506697089
aa(lp82
I2
aF0.3783819276784582
aa(lp83
I4
aF0.19430423313218123
aa(lp84
I5
aF1.4214888634406941
aa(lp85
I3
aF-0.7414240474780599
aa(lp86
I0
aF-0.2045307717180855
aa(lp87
I6
aF-0.30679615757712825
aa(lp88
I7
aF-0.6544984694978736
aa(lp89
I1
aF0.3998750438244532
aa(lp90
I2
aF0.4755340442445488
aa(lp91
I3
aF-0.7311975088921556
aa(lp92
I4
aF0.10737865515199489
aa(lp93
I5
aF1.6260196351587797
aa(lp94
I0
aF-0.20964404101103765
aa(lp95
I6
aF-0.28122981111236756
aa(lp96
I7
aF-0.6544984694978736
aa(lp97
I1
aF0.36352276711313924
aa(lp98
I2
aF0.5164401985881659
aa(lp99
I3
aF-0.7874434711146292
aa(lp100
I5
aF1.7027186745530618
aa(lp101
I4
aF0.11760519373789917
aa(lp102
I0
aF-0.20964404101103765
aa(lp103
I6
aF-0.22498384888989406
aa(lp104
I7
aF-0.6544984694978736
aa(lp105
I1
aF0.39452912077867175
aa(lp106
I2
aF0.5317800064670223
aa(lp107
I3
aF-0.8385761640441506
aa(lp108
I4
aF0.07669903939428206
aa(lp109
I5
aF1.564660403643354
aa(lp110
I0
aF-0.20964404101103765
aa(lp111
I6
aF-0.17385115596037268
aa(lp112
I7
aF-0.6544984694978736
aa(lp113
I1
aF0.4544034588914241
aa(lp114
I2
aF0.7005178931344428
aa(lp115
I3
aF-0.9612946270750019
aa(lp116
I5
aF1.222071361015561
aa(lp117
I4
aF-0.07669903939428206
aa(lp118
I0
aF-0.2045307717180855
aa(lp119
I6
aF-0.15851134808151626
aa(lp120
I7
aF-0.6544984694978736
aa(lp121
I1
aF0.5046551355217698
aa(lp122
I2
aF0.7874434711146292
aa(lp123
I3
aF-1.037993666469284
aa(lp124
I5
aF1.2067315531367044
aa(lp125
I4
aF-0.0409061543436171
aa(lp126
I0
aF-0.20964404101103765
aa(lp127
I6
aF-0.1636246173744684
aa(lp128
I7
aF-0.6544984694978736
aa(lp129
I1
aF0.7537751494551859
aa(lp130
I2
aF0.6238188537401608
aa(lp131
I3
aF-1.1658253987930873
aa(lp132
I5
aF0.894822126266624
aa(lp133
I4
aF0.09203884727313848
aa(lp134
I0
aF-0.21987057959694192
aa(lp135
I6
aF-0.16873788666742054
aa(lp136
I7
aF-0.6544984694978736
aa(lp137
I1
aF0.8596244257616588
aa(lp138
I2
aF0.6187055844472087
aa(lp139
I3
aF-1.1607121295001352
aa(lp140
I5
aF0.3374757733348411
aa(lp141
I4
aF0.3272492347489368
aa(lp142
I0
aF-0.2045307717180855
aa(lp143
I6
aF-0.16873788666742054
aa(lp144
I7
aF-0.6544984694978736
aa(lp145
I1
aF0.8938383332546601
aa(lp146
I2
aF0.6391586616190172
aa(lp147
I3
aF-1.1453723216212788
aa(lp148
I5
aF0.28122981111236756
aa(lp149
I4
aF0.42440135131502743
aa(lp150
I0
aF-0.19941750242513337
aa(lp151
I6
aF-0.16873788666742054
aa(lp152
I7
aF-0.6544984694978736
aa(lp153
I1
aF0.8938383332546601
aa(lp154
I2
aF0.6544984694978736
aa(lp155
I4
aF0.42440135131502743
aa(lp156
I5
aF0.29656961899122397
aa(lp157
I3
aF-1.1402590523283267
aa(lp158
I0
aF-0.23521038747579834
aa(lp159
I6
aF-0.16873788666742054
aa(lp160
I7
aF-0.6544984694978736
aa(lp161
I1
aF0.6746554883776202
aa(lp162
I2
aF0.8641425105089112
aa(lp163
I4
aF0.15339807878856412
aa(lp164
I5
aF0.3681553890925539
aa(lp165
I3
aF-1.232297899601465
aa(lp166
I0
aF-0.32213596545598466
aa(lp167
I6
aF-0.16873788666742054
aa(lp168
I7
aF-0.6544984694978736
aa(lp169
I1
aF0.12081786083466099
aa(lp170
I2
aF1.0942396286917575
aa(lp171
I3
aF-1.1811652066719438
aa(lp172
I4
aF-0.43974115919388385
aa(lp173
I5
aF0.5317800064670223
aa(lp174
I0
aF-0.32213596545598466
aa(lp175
I6
aF-0.16873788666742054
aa(lp176
I7
aF-0.6544984694978736
aa(lp177
I1
aF0.03421390749300134
aa(lp178
I2
aF1.0993528979847096
aa(lp179
I3
aF-1.1198059751565181
aa(lp180
I5
aF0.3783819276784582
aa(lp181
I4
aF-0.4704207749515967
aa(lp182
I0
aF-0.26589000323351114
aa(lp183
I6
aF-0.16873788666742054
aa(lp184
I7
aF-0.6544984694978736
aa(lp185
I1
aF0.6318881040113685
aa(lp186
I2
aF0.7721036632357727
aa(lp187
I3
aF-0.4857605828304531
aa(lp188
I5
aF-0.46530750565864454
aa(lp189
I4
aF0.10226538585904275
aa(lp190
I0
aF-0.23521038747579834
aa(lp191
I6
aF-0.16873788666742054
aa(lp192
I7
aF-0.6544984694978736
aa(lp193
I1
aF0.9034609947370668
aa(lp194
I2
aF0.48064731353750095
aa(lp195
I3
aF-0.7005178931344428
aa(lp196
I4
aF0.3937217355573146
aa(lp197
I5
aF-0.3681553890925539
aa(lp198
I0
aF-0.21987057959694192
aa(lp199
I6
aF-0.16873788666742054
aa(lp200
I7
aF-0.6544984694978736
aa(lp201
I1
aF0.9034609947370668
aa(lp202
I2
aF0.4959871214163573
aa(lp203
I3
aF-0.7158577010132993
aa(lp204
I5
aF-0.35792885050664963
aa(lp205
I4
aF0.3937217355573146
aa(lp206
I0
aF-0.2300971181828462
aa(lp207
I6
aF-0.16873788666742054
aa(lp208
I7
aF-0.6544984694978736
aa(lp209
I1
aF0.9023918101279104
aa(lp210
I2
aF0.5880259686894959
aa(lp211
I3
aF-0.9306150113172891
aa(lp212
I4
aF0.3937217355573146
aa(lp213
I5
aF0.0
aa(lp214
I0
aF-0.29656961899122397
aa(lp215
I6
aF-0.16873788666742054
aa(lp216
I7
aF-0.6544984694978736
aa(lp217
I1
aF0.8189954106137196
aa(lp218
I2
aF0.7414240474780599
aa(lp219
I3
aF-1.1504855909142309
aa(lp220
I4
aF0.3783819276784582
aa(lp221
I5
aF0.3272492347489368
aa(lp222
I0
aF-0.4192880820220753
aa(lp223
I6
aF-0.16873788666742054
aa(lp224
I7
aF-0.6544984694978736
aa(lp225
I1
aF0.7548443340643421
aa(lp226
I2
aF0.7925567404075813
aa(lp227
I3
aF-1.1453723216212788
aa(lp228
I5
aF0.4499676977797881
aa(lp229
I4
aF0.3374757733348411
aa(lp230
I0
aF-0.48064731353750095
aa(lp231
I6
aF-0.16873788666742054
aa(lp232
I7
aF-0.6544984694978736
aa(lp233
I1
aF0.7430833033636229
aa(lp234
I2
aF0.4857605828304531
aa(lp235
I3
aF-1.073786551519949
aa(lp236
I4
aF0.3374757733348411
aa(lp237
I5
aF1.0635600129340446
aa(lp238
I0
aF-0.5164401985881659
aa(lp239
I6
aF-0.16873788666742054
aa(lp240
I7
aF-0.6544984694978736
aa(lp241
I1
aF0.9515743021490999
aa(lp242
I2
aF-0.15339807878856412
aa(lp243
I3
aF-1.0175405892974754
aa(lp244
I5
aF0.8641425105089112
aa(lp245
I4
aF0.634045392326065
aa(lp246
I0
aF-0.4499676977797881
aa(lp247
I6
aF-0.16873788666742054
aa(lp248
I7
aF-0.6544984694978736
aa(lp249
I1
aF1.2402541466212986
aa(lp250
I2
aF-0.628932123033113
aa(lp251
I3
aF-0.6954046238414907
aa(lp252
I5
aF0.2505501953546547
aa(lp253
I4
aF0.557346352931783
aa(lp254
I0
aF-0.29656961899122397
aa(lp255
I6
aF-0.16873788666742054
aa(lp256
I7
aF-0.6544984694978736
aa(lp257
I1
aF1.5845315907696247
aa(lp258
I2
aF-0.5777994301035916
aa(lp259
I3
aF-0.5777994301035916
aa(lp260
I5
aF-0.06647250080837779
aa(lp261
I4
aF0.34770231192074535
aa(lp262
I0
aF-0.15339807878856412
aa(lp263
I6
aF-0.16873788666742054
aa(lp264
I7
aF-0.6442719309119693
aa(lp265
I1
aF1.8058528048649771
aa(lp266
I2
aF-0.36304211979960177
aa(lp267
I4
aF0.34770231192074535
aa(lp268
I5
aF-0.14317154020265985
aa(lp269
I3
aF-0.5062136600022616
aa(lp270
I0
aF-0.06135923151542565
aa(lp271
I6
aF-0.16873788666742054
aa(lp272
I7
aF-0.5726861608106394
aa(lp273
I1
aF1.8154754663473838
aa(lp274
I2
aF-0.3681553890925539
aa(lp275
I4
aF0.3272492347489368
aa(lp276
I3
aF-0.26589000323351114
aa(lp277
I5
aF-0.1380582709097077
aa(lp278
I0
aF-0.06135923151542565
aa(lp279
I6
aF-0.17385115596037268
aa(lp280
I7
aF-0.5624596222247351
aa(lp281
I1
aF1.8154754663473838
aa(lp282
I2
aF-0.37326865838550605
aa(lp283
I3
aF-0.2710032725264633
aa(lp284
I5
aF-0.10226538585904275
aa(lp285
I4
aF0.3016828882841761
aa(lp286
I0
aF-0.06135923151542565
aa(lp287
I7
aF-0.5675728915176873
aa(lp288
I6
aF-0.16873788666742054
aa(lp289
I1
aF1.8154754663473838
aa(lp290
I2
aF-0.37326865838550605
aa(lp291
I4
aF0.3016828882841761
aa(lp292
I3
aF-0.2710032725264633
aa(lp293
I5
aF-0.10226538585904275
aa(lp294
I0
aF-0.06135923151542565
aa(lp295
I6
aF-0.16873788666742054
aa(lp296
I7
aF-0.5675728915176873
aa(lp297
I1
aF1.8154754663473838
aa(lp298
I2
aF-0.37326865838550605
aa(lp299
I3
aF-0.2710032725264633
aa(lp300
I4
aF0.3016828882841761
aa(lp301
I5
aF-0.10226538585904275
aa(lp302
I0
aF-0.06135923151542565
aa(lp303
I6
aF-0.16873788666742054
aa(lp304
I7
aF-0.5675728915176873
aa.